
final.elf:     file format elf32-littlenios2
final.elf
architecture: nios2:r1, flags 0x00000112:
EXEC_P, HAS_SYMS, D_PAGED
start address 0x000001bc

Program Header:
    LOAD off    0x00001000 vaddr 0x00000000 paddr 0x00000000 align 2**12
         filesz 0x00000020 memsz 0x00000020 flags r-x
    LOAD off    0x00001020 vaddr 0x00000020 paddr 0x00000020 align 2**12
         filesz 0x0001345c memsz 0x0001345c flags r-x
    LOAD off    0x0001447c vaddr 0x0001347c paddr 0x00014f68 align 2**12
         filesz 0x00001aec memsz 0x00001aec flags rw-
    LOAD off    0x00016a54 vaddr 0x00016a54 paddr 0x00016a54 align 2**12
         filesz 0x00000000 memsz 0x00000160 flags rw-

Sections:
Idx Name          Size      VMA       LMA       File off  Algn
  0 .entry        00000020  00000000  00000000  00001000  2**5
                  CONTENTS, ALLOC, LOAD, READONLY, CODE
  1 .exceptions   0000019c  00000020  00000020  00001020  2**2
                  CONTENTS, ALLOC, LOAD, READONLY, CODE
  2 .text         00012834  000001bc  000001bc  000011bc  2**2
                  CONTENTS, ALLOC, LOAD, READONLY, CODE
  3 .rodata       00000a8c  000129f0  000129f0  000139f0  2**2
                  CONTENTS, ALLOC, LOAD, READONLY, DATA
  4 .rwdata       00001aec  0001347c  00014f68  0001447c  2**2
                  CONTENTS, ALLOC, LOAD, DATA, SMALL_DATA
  5 .bss          00000160  00016a54  00016a54  00016a54  2**2
                  ALLOC, SMALL_DATA
  6 .sdram        00000000  00016bb4  00016bb4  00015f68  2**0
                  CONTENTS
  7 .sram         00000000  08200000  08200000  00015f68  2**0
                  CONTENTS
  8 .comment      00000023  00000000  00000000  00015f68  2**0
                  CONTENTS, READONLY
  9 .debug_aranges 00000d08  00000000  00000000  00015f90  2**3
                  CONTENTS, READONLY, DEBUGGING
 10 .debug_info   00023677  00000000  00000000  00016c98  2**0
                  CONTENTS, READONLY, DEBUGGING
 11 .debug_abbrev 00008f94  00000000  00000000  0003a30f  2**0
                  CONTENTS, READONLY, DEBUGGING
 12 .debug_line   0000b2c5  00000000  00000000  000432a3  2**0
                  CONTENTS, READONLY, DEBUGGING
 13 .debug_frame  000020b4  00000000  00000000  0004e568  2**2
                  CONTENTS, READONLY, DEBUGGING
 14 .debug_str    000031ce  00000000  00000000  0005061c  2**0
                  CONTENTS, READONLY, DEBUGGING
 15 .debug_loc    00016d3e  00000000  00000000  000537ea  2**0
                  CONTENTS, READONLY, DEBUGGING
 16 .debug_alt_sim_info 00000060  00000000  00000000  0006a528  2**2
                  CONTENTS, READONLY, DEBUGGING
 17 .debug_ranges 00001368  00000000  00000000  0006a588  2**3
                  CONTENTS, READONLY, DEBUGGING
 18 .thread_model 00000003  00000000  00000000  0006eb11  2**0
                  CONTENTS, READONLY
 19 .cpu          00000003  00000000  00000000  0006eb14  2**0
                  CONTENTS, READONLY
 20 .qsys         00000001  00000000  00000000  0006eb17  2**0
                  CONTENTS, READONLY
 21 .simulation_enabled 00000001  00000000  00000000  0006eb18  2**0
                  CONTENTS, READONLY
 22 .sysid_hash   00000004  00000000  00000000  0006eb19  2**0
                  CONTENTS, READONLY
 23 .sysid_base   00000004  00000000  00000000  0006eb1d  2**0
                  CONTENTS, READONLY
 24 .sysid_time   00000004  00000000  00000000  0006eb21  2**0
                  CONTENTS, READONLY
 25 .stderr_dev   00000009  00000000  00000000  0006eb25  2**0
                  CONTENTS, READONLY
 26 .stdin_dev    00000009  00000000  00000000  0006eb2e  2**0
                  CONTENTS, READONLY
 27 .stdout_dev   00000009  00000000  00000000  0006eb37  2**0
                  CONTENTS, READONLY
 28 .sopc_system_name 0000000c  00000000  00000000  0006eb40  2**0
                  CONTENTS, READONLY
 29 .quartus_project_dir 00000030  00000000  00000000  0006eb4c  2**0
                  CONTENTS, READONLY
 30 .jdi          00003ce9  00000000  00000000  0006eb7c  2**0
                  CONTENTS, READONLY
 31 .sopcinfo     000884d3  00000000  00000000  00072865  2**0
                  CONTENTS, READONLY
SYMBOL TABLE:
00000000 l    d  .entry	00000000 .entry
00000020 l    d  .exceptions	00000000 .exceptions
000001bc l    d  .text	00000000 .text
000129f0 l    d  .rodata	00000000 .rodata
0001347c l    d  .rwdata	00000000 .rwdata
00016a54 l    d  .bss	00000000 .bss
00016bb4 l    d  .sdram	00000000 .sdram
08200000 l    d  .sram	00000000 .sram
00000000 l    d  .comment	00000000 .comment
00000000 l    d  .debug_aranges	00000000 .debug_aranges
00000000 l    d  .debug_info	00000000 .debug_info
00000000 l    d  .debug_abbrev	00000000 .debug_abbrev
00000000 l    d  .debug_line	00000000 .debug_line
00000000 l    d  .debug_frame	00000000 .debug_frame
00000000 l    d  .debug_str	00000000 .debug_str
00000000 l    d  .debug_loc	00000000 .debug_loc
00000000 l    d  .debug_alt_sim_info	00000000 .debug_alt_sim_info
00000000 l    d  .debug_ranges	00000000 .debug_ranges
00000000 l    df *ABS*	00000000 ../final_bsp//obj/HAL/src/crt0.o
00000204 l       .text	00000000 alt_after_alt_main
00000000 l    df *ABS*	00000000 alt_exception_entry.o
00000094 l       .exceptions	00000000 alt_exception_unknown
00000000 l    df *ABS*	00000000 alt_irq_handler.c
00000000 l    df *ABS*	00000000 main.c
00016a54 l     O .bss	00000002 ctl_reg.3304
00016a56 l     O .bss	00000002 no_device.3305
00000000 l    df *ABS*	00000000 printf.c
00000000 l    df *ABS*	00000000 puts.c
00000000 l    df *ABS*	00000000 strlen.c
00000000 l    df *ABS*	00000000 vfprintf.c
000131ca l     O .rodata	00000010 zeroes.4181
000131da l     O .rodata	00000010 blanks.4180
00000000 l    df *ABS*	00000000 wsetup.c
00000000 l    df *ABS*	00000000 dtoa.c
0000604c l     F .text	00000200 quorem
00000000 l    df *ABS*	00000000 fflush.c
00000000 l    df *ABS*	00000000 findfp.c
00007bcc l     F .text	00000008 __fp_lock
00007bd4 l     F .text	00000008 __fp_unlock
00007be8 l     F .text	000001a0 __sinit.part.1
00000000 l    df *ABS*	00000000 mallocr.c
00000000 l    df *ABS*	00000000 fvwrite.c
00000000 l    df *ABS*	00000000 fwalk.c
00000000 l    df *ABS*	00000000 impure.c
0001347c l     O .rwdata	00000424 impure_data
00000000 l    df *ABS*	00000000 locale.c
000138c0 l     O .rwdata	00000020 lc_ctype_charset
000138a0 l     O .rwdata	00000020 lc_message_charset
000138e0 l     O .rwdata	00000038 lconv
00000000 l    df *ABS*	00000000 makebuf.c
00000000 l    df *ABS*	00000000 mallocr.c
00000000 l    df *ABS*	00000000 memchr.c
00000000 l    df *ABS*	00000000 memcpy.c
00000000 l    df *ABS*	00000000 memmove.c
00000000 l    df *ABS*	00000000 memset.c
00000000 l    df *ABS*	00000000 mprec.c
0001320c l     O .rodata	0000000c p05.2678
00000000 l    df *ABS*	00000000 mallocr.c
00000000 l    df *ABS*	00000000 s_fpclassify.c
00000000 l    df *ABS*	00000000 sbrkr.c
00000000 l    df *ABS*	00000000 stdio.c
00000000 l    df *ABS*	00000000 strcmp.c
00000000 l    df *ABS*	00000000 vfprintf.c
0000b048 l     F .text	000000fc __sprint_r.part.0
00013340 l     O .rodata	00000010 blanks.4125
00013330 l     O .rodata	00000010 zeroes.4126
00000000 l    df *ABS*	00000000 writer.c
00000000 l    df *ABS*	00000000 closer.c
00000000 l    df *ABS*	00000000 mallocr.c
00000000 l    df *ABS*	00000000 fclose.c
00000000 l    df *ABS*	00000000 fputwc.c
00000000 l    df *ABS*	00000000 fstatr.c
00000000 l    df *ABS*	00000000 int_errno.c
00000000 l    df *ABS*	00000000 isattyr.c
00000000 l    df *ABS*	00000000 lseekr.c
00000000 l    df *ABS*	00000000 readr.c
00000000 l    df *ABS*	00000000 wbuf.c
00000000 l    df *ABS*	00000000 wcrtomb.c
00000000 l    df *ABS*	00000000 wctomb_r.c
00000000 l    df *ABS*	00000000 libgcc2.c
00000000 l    df *ABS*	00000000 libgcc2.c
00000000 l    df *ABS*	00000000 lib2-divmod.c
0000d964 l     F .text	0000006c udivmodsi4
00000000 l    df *ABS*	00000000 adddf3.c
00000000 l    df *ABS*	00000000 divdf3.c
00000000 l    df *ABS*	00000000 eqdf2.c
00000000 l    df *ABS*	00000000 gedf2.c
00000000 l    df *ABS*	00000000 ledf2.c
00000000 l    df *ABS*	00000000 muldf3.c
00000000 l    df *ABS*	00000000 subdf3.c
00000000 l    df *ABS*	00000000 fixdfsi.c
00000000 l    df *ABS*	00000000 floatsidf.c
00000000 l    df *ABS*	00000000 floatunsidf.c
00000000 l    df *ABS*	00000000 libgcc2.c
00000000 l    df *ABS*	00000000 libgcc2.c
00000000 l    df *ABS*	00000000 alt_close.c
00010090 l     F .text	00000050 alt_get_errno
00000000 l    df *ABS*	00000000 alt_dev.c
000101b0 l     F .text	0000002c alt_dev_null_write
00000000 l    df *ABS*	00000000 alt_errno.c
00000000 l    df *ABS*	00000000 alt_fstat.c
000101dc l     F .text	00000050 alt_get_errno
00000000 l    df *ABS*	00000000 alt_isatty.c
000102dc l     F .text	00000050 alt_get_errno
00000000 l    df *ABS*	00000000 alt_load.c
000103d0 l     F .text	00000064 alt_load_section
00000000 l    df *ABS*	00000000 alt_lseek.c
000104b4 l     F .text	00000050 alt_get_errno
00000000 l    df *ABS*	00000000 alt_main.c
00000000 l    df *ABS*	00000000 alt_malloc_lock.c
00000000 l    df *ABS*	00000000 alt_read.c
00010690 l     F .text	00000050 alt_get_errno
00000000 l    df *ABS*	00000000 alt_release_fd.c
00000000 l    df *ABS*	00000000 alt_sbrk.c
00014f58 l     O .rwdata	00000004 heap_end
00000000 l    df *ABS*	00000000 alt_usleep.c
00000000 l    df *ABS*	00000000 alt_write.c
0001091c l     F .text	00000050 alt_get_errno
00000000 l    df *ABS*	00000000 alt_sys_init.c
00010a64 l     F .text	00000038 alt_dev_reg
00013ec8 l     O .rwdata	00001060 jtag_uart
00000000 l    df *ABS*	00000000 altera_avalon_jtag_uart_fd.c
00000000 l    df *ABS*	00000000 altera_avalon_jtag_uart_init.c
00010d58 l     F .text	00000204 altera_avalon_jtag_uart_irq
00010f5c l     F .text	000000a8 altera_avalon_jtag_uart_timeout
00000000 l    df *ABS*	00000000 altera_avalon_jtag_uart_ioctl.c
00000000 l    df *ABS*	00000000 altera_avalon_jtag_uart_read.c
00000000 l    df *ABS*	00000000 altera_avalon_jtag_uart_write.c
00000000 l    df *ABS*	00000000 altera_avalon_timer_sc.c
0001157c l     F .text	00000074 alt_avalon_timer_sc_irq
00000000 l    df *ABS*	00000000 alt_alarm_start.c
00000000 l    df *ABS*	00000000 alt_busy_sleep.c
00000000 l    df *ABS*	00000000 alt_dcache_flush_all.c
00000000 l    df *ABS*	00000000 alt_dev_llist_insert.c
00011954 l     F .text	00000050 alt_get_errno
00000000 l    df *ABS*	00000000 alt_do_ctors.c
00000000 l    df *ABS*	00000000 alt_do_dtors.c
00000000 l    df *ABS*	00000000 alt_icache_flush_all.c
00000000 l    df *ABS*	00000000 alt_iic.c
00000000 l    df *ABS*	00000000 alt_iic_isr_register.c
00000000 l    df *ABS*	00000000 alt_io_redirect.c
00011e00 l     F .text	000000c0 alt_open_fd
00000000 l    df *ABS*	00000000 alt_irq_vars.c
00000000 l    df *ABS*	00000000 alt_open.c
00011f38 l     F .text	00000050 alt_get_errno
00011f88 l     F .text	000000cc alt_file_locked
00000000 l    df *ABS*	00000000 alt_tick.c
00000000 l    df *ABS*	00000000 altera_nios2_qsys_irq.c
00000000 l    df *ABS*	00000000 alt_find_dev.c
00000000 l    df *ABS*	00000000 alt_find_file.c
00000000 l    df *ABS*	00000000 alt_get_fd.c
00000000 l    df *ABS*	00000000 alt_icache_flush.c
00000000 l    df *ABS*	00000000 atexit.c
00000000 l    df *ABS*	00000000 exit.c
00000000 l    df *ABS*	00000000 memcmp.c
00000000 l    df *ABS*	00000000 __atexit.c
00000000 l    df *ABS*	00000000 __call_atexit.c
00000000 l    df *ABS*	00000000 alt_exit.c
0000a688 g     F .text	00000074 _mprec_log10
0000a774 g     F .text	0000008c __any_on
0000c998 g     F .text	00000054 _isatty_r
00013218 g     O .rodata	00000028 __mprec_tinytens
000105d8 g     F .text	00000078 alt_main
00003d98 g     F .text	000000b8 _puts_r
00016ab4 g     O .bss	00000100 alt_irq
0000c9ec g     F .text	0000005c _lseek_r
00014f68 g       *ABS*	00000000 __flash_rwdata_start
0000ebf8 g     F .text	00000084 .hidden __eqdf2
00016bb4 g       *ABS*	00000000 __alt_heap_start
00003d5c g     F .text	0000003c printf
0000cc14 g     F .text	0000009c _wcrtomb_r
08200000 g       *ABS*	00000000 __alt_mem_sram
0000af40 g     F .text	0000005c __sseek
00007f1c g     F .text	00000010 __sinit
0000caa4 g     F .text	00000154 __swbuf_r
00008994 g     F .text	0000007c _setlocale_r
00007d88 g     F .text	00000064 __sfmoreglue
00010670 g     F .text	00000020 __malloc_unlock
000095f4 g     F .text	0000015c memmove
00007f04 g     F .text	00000018 _cleanup
00009874 g     F .text	000000a8 _Balloc
0000ec7c g     F .text	000000e0 .hidden __gtdf2
00000000  w      *UND*	00000000 __errno
00000000 g     F .entry	0000001c __reset
00000020 g       *ABS*	00000000 __flash_exceptions_start
0000c940 g     F .text	00000058 _fstat_r
00016a70 g     O .bss	00000004 errno
0000aebc g     F .text	00000008 __seofread
00016a78 g     O .bss	00000004 alt_argv
0001cf28 g       *ABS*	00000000 _gp
000108ec g     F .text	00000030 usleep
00013d48 g     O .rwdata	00000180 alt_fd_list
00012368 g     F .text	00000090 alt_find_dev
000094bc g     F .text	00000138 memcpy
00007bdc g     F .text	0000000c _cleanup_r
0000feb8 g     F .text	000000d0 .hidden __floatsidf
00011ec0 g     F .text	00000078 alt_io_redirect
0000ed5c g     F .text	000000e0 .hidden __ltdf2
000129f0 g       *ABS*	00000000 __DTOR_END__
00003e50 g     F .text	00000014 puts
0000ada0 g     F .text	00000074 __fpclassifyd
0000a5e4 g     F .text	000000a4 __ratio
0000c4b8 g     F .text	00000024 __vfiprintf_internal
00011158 g     F .text	0000020c altera_avalon_jtag_uart_read
00000000  w      *UND*	00000000 malloc
00003d30 g     F .text	0000002c _printf_r
0000da80 g     F .text	00000008 .hidden __udivsi3
0001032c g     F .text	000000a4 isatty
00013268 g     O .rodata	000000c8 __mprec_tens
00008a10 g     F .text	0000000c __locale_charset
000125c0 g     F .text	0000008c alt_icache_flush
00016a6c g     O .bss	00000004 __malloc_top_pad
00014f30 g     O .rwdata	00000004 __mb_cur_max
00008a40 g     F .text	0000000c _localeconv_r
00009c74 g     F .text	0000003c __i2b
00008380 g     F .text	000004a4 __sfvwrite_r
0000ae14 g     F .text	00000054 _sbrk_r
0000ca48 g     F .text	0000005c _read_r
00014f50 g     O .rwdata	00000004 alt_max_fd
0000c650 g     F .text	00000100 _fclose_r
00007b9c g     F .text	00000030 fflush
00016a68 g     O .bss	00000004 __malloc_max_sbrked_mem
0000da90 g     F .text	0000089c .hidden __adddf3
0000a38c g     F .text	0000011c __b2d
0000d3d4 g     F .text	00000590 .hidden __umoddi3
00010504 g     F .text	000000d4 lseek
00014f28 g     O .rwdata	00000004 _global_impure_ptr
0000a800 g     F .text	000005a0 _realloc_r
00016bb4 g       *ABS*	00000000 __bss_end
00011d10 g     F .text	000000f0 alt_iic_isr_register
00012244 g     F .text	00000104 alt_tick
0000ce14 g     F .text	000005c0 .hidden __udivdi3
0000c764 g     F .text	00000184 _fputwc_r
00013240 g     O .rodata	00000028 __mprec_bigtens
00009a58 g     F .text	00000104 __s2b
0000ff88 g     F .text	000000a4 .hidden __floatunsidf
0000a134 g     F .text	00000060 __mcmp
00007f3c g     F .text	00000018 __fp_lock_all
00011cc4 g     F .text	0000004c alt_ic_irq_enabled
000121ac g     F .text	00000098 alt_alarm_stop
00016a80 g     O .bss	00000004 alt_irq_active
000000ec g     F .exceptions	000000d0 alt_irq_handler
00013d20 g     O .rwdata	00000028 alt_dev_null
00011910 g     F .text	00000044 alt_dcache_flush_all
00009b5c g     F .text	00000068 __hi0bits
0000fe30 g     F .text	00000088 .hidden __fixdfsi
00014f68 g       *ABS*	00000000 __ram_rwdata_end
00014f48 g     O .rwdata	00000008 alt_dev_list
0001096c g     F .text	000000f8 write
0001347c g       *ABS*	00000000 __ram_rodata_end
0001022c g     F .text	000000b0 fstat
0000ed5c g     F .text	000000e0 .hidden __ledf2
00009eac g     F .text	00000140 __pow5mult
0000b15c g     F .text	0000135c ___vfiprintf_internal_r
00016a60 g     O .bss	00000004 __nlocale_changed
0000da88 g     F .text	00000008 .hidden __umodsi3
00016bb4 g       *ABS*	00000000 end
00010c94 g     F .text	000000c4 altera_avalon_jtag_uart_init
000129f0 g       *ABS*	00000000 __CTOR_LIST__
08000000 g       *ABS*	00000000 __alt_stack_pointer
000115f0 g     F .text	00000088 alt_avalon_timer_sc_init
0001002c g     F .text	00000064 .hidden __clzsi2
00011364 g     F .text	00000218 altera_avalon_jtag_uart_write
00007f2c g     F .text	00000004 __sfp_lock_acquire
000093d4 g     F .text	000000e8 memchr
00003efc g     F .text	00001ffc ___vfprintf_internal_r
00008090 g     F .text	000002f0 _free_r
00008a1c g     F .text	00000010 __locale_mb_cur_max
00012828 g     F .text	00000194 __call_exitprocs
00016a5c g     O .bss	00000004 __mlocale_changed
00014f34 g     O .rwdata	00000004 __malloc_sbrk_base
000001bc g     F .text	0000004c _start
00016a84 g     O .bss	00000004 _alt_tick_rate
00009fec g     F .text	00000148 __lshift
00016a88 g     O .bss	00000004 _alt_nticks
000106e0 g     F .text	000000fc read
00010ad0 g     F .text	00000060 alt_sys_init
00012714 g     F .text	00000114 __register_exitproc
00009cb0 g     F .text	000001fc __multiply
00011004 g     F .text	00000068 altera_avalon_jtag_uart_close
0001347c g       *ABS*	00000000 __ram_rwdata_start
000129f0 g       *ABS*	00000000 __ram_rodata_start
00016a8c g     O .bss	00000028 __malloc_current_mallinfo
0000a4a8 g     F .text	0000013c __d2b
00010b30 g     F .text	00000060 altera_avalon_jtag_uart_read_fd
0001250c g     F .text	000000b4 alt_get_fd
000117b8 g     F .text	00000158 alt_busy_sleep
0000c538 g     F .text	00000054 _close_r
00012698 g     F .text	0000007c memcmp
00010bf0 g     F .text	00000050 altera_avalon_jtag_uart_close_fd
00016bb4 g       *ABS*	00000000 __alt_stack_base
00010c40 g     F .text	00000054 altera_avalon_jtag_uart_ioctl_fd
00005f1c g     F .text	00000130 __swsetup_r
0000e32c g     F .text	000008cc .hidden __divdf3
00007dec g     F .text	00000118 __sfp
0000a6fc g     F .text	00000078 __copybits
00013918 g     O .rwdata	00000408 __malloc_av_
00007f38 g     F .text	00000004 __sinit_lock_release
0000ee3c g     F .text	00000724 .hidden __muldf3
0000ae68 g     F .text	00000054 __sread
000123f8 g     F .text	00000114 alt_find_file
000119a4 g     F .text	000000a4 alt_dev_llist_insert
00010650 g     F .text	00000020 __malloc_lock
0001083c g     F .text	000000b0 sbrk
00007974 g     F .text	00000228 _fflush_r
0000c58c g     F .text	000000c4 _calloc_r
00016a54 g       *ABS*	00000000 __bss_start
00009750 g     F .text	00000124 memset
0000025c g     F .text	0000398c main
00016a7c g     O .bss	00000004 alt_envp
00016a64 g     O .bss	00000004 __malloc_max_total_mem
00010b90 g     F .text	00000060 altera_avalon_jtag_uart_write_fd
0000cbf8 g     F .text	0000001c __swbuf
0000af9c g     F .text	00000008 __sclose
08000000 g       *ABS*	00000000 __alt_heap_limit
0000c750 g     F .text	00000014 fclose
0000624c g     F .text	00001728 _dtoa_r
00008c2c g     F .text	000007a8 _malloc_r
0000cd88 g     F .text	00000030 __ascii_wctomb
00014f54 g     O .rwdata	00000004 alt_errno
00008824 g     F .text	000000b8 _fwalk
0000d9d0 g     F .text	00000054 .hidden __divsi3
00007f6c g     F .text	00000124 _malloc_trim_r
000129f0 g       *ABS*	00000000 __CTOR_END__
0000afa4 g     F .text	000000a4 strcmp
000129f0 g       *ABS*	00000000 __flash_rodata_start
000129f0 g       *ABS*	00000000 __DTOR_LIST__
0000ebf8 g     F .text	00000084 .hidden __nedf2
00003c34 g     F .text	00000040 UsbRead
00010a9c g     F .text	00000034 alt_irq_init
000107dc g     F .text	00000060 alt_release_fd
00000208 g     F .text	00000054 maxmin
00013350 g     O .rodata	00000100 .hidden __clz_tab
00016a58 g     O .bss	00000004 _PathLocale
0001264c g     F .text	00000014 atexit
0000c4dc g     F .text	0000005c _write_r
00008a4c g     F .text	0000001c setlocale
00014f2c g     O .rwdata	00000004 _impure_ptr
00016a74 g     O .bss	00000004 alt_argc
00011aa4 g     F .text	0000005c _do_dtors
00008a38 g     F .text	00000008 __locale_cjk_lang
00000020 g       .exceptions	00000000 alt_irq_entry
0000a32c g     F .text	00000060 __ulp
00007f54 g     F .text	00000018 __fp_unlock_all
00014f40 g     O .rwdata	00000008 alt_fs_list
00000020 g       *ABS*	00000000 __ram_exceptions_start
00008a68 g     F .text	0000000c localeconv
00011b30 g     F .text	00000050 alt_ic_isr_register
00014f68 g       *ABS*	00000000 _edata
00016bb4 g       *ABS*	00000000 _end
00003be8 g     F .text	0000004c UsbWrite
000001bc g       *ABS*	00000000 __ram_exceptions_end
0001106c g     F .text	000000ec altera_avalon_jtag_uart_ioctl
00011c20 g     F .text	000000a4 alt_ic_irq_disable
0000aec4 g     F .text	0000007c __swrite
00014f38 g     O .rwdata	00000004 __malloc_trim_threshold
00012348 g     F .text	00000020 altera_nios2_qsys_irq_init
00008a2c g     F .text	0000000c __locale_msgcharset
00012660 g     F .text	00000038 exit
000088dc g     F .text	000000b8 _fwalk_reent
0000a194 g     F .text	00000198 __mdiff
0000da24 g     F .text	0000005c .hidden __modsi3
08000000 g       *ABS*	00000000 __alt_data_end
00000020 g     F .exceptions	00000000 alt_exception
00007f30 g     F .text	00000004 __sfp_lock_release
00000000 g       *ABS*	00000000 __alt_mem_sdram
000129bc g     F .text	00000034 _exit
00011678 g     F .text	00000140 alt_alarm_start
00008a74 g     F .text	000001b8 __smakebuf_r
00003e64 g     F .text	00000098 strlen
00012054 g     F .text	00000158 open
0000ec7c g     F .text	000000e0 .hidden __gedf2
00014f3c g     O .rwdata	00000004 __wctomb
0000b144 g     F .text	00000018 __sprint_r
00011b00 g     F .text	00000030 alt_icache_flush_all
00014f5c g     O .rwdata	00000004 alt_priority_mask
00011b80 g     F .text	000000a0 alt_ic_irq_enable
00005ef8 g     F .text	00000024 __vfprintf_internal
0000cdb8 g     F .text	0000005c _wctomb_r
0000f560 g     F .text	000008d0 .hidden __subdf3
00009bc4 g     F .text	000000b0 __lo0bits
00014f60 g     O .rwdata	00000008 alt_alarm_list
00011a48 g     F .text	0000005c _do_ctors
00003c74 g     F .text	000000bc UsbSoftReset
0000ccb0 g     F .text	000000d8 wcrtomb
000100e0 g     F .text	000000d0 close
00010434 g     F .text	00000080 alt_load
0000c8e8 g     F .text	00000058 fputwc
00000000  w      *UND*	00000000 free
00007f34 g     F .text	00000004 __sinit_lock_acquire
00009944 g     F .text	00000114 __multadd
0000991c g     F .text	00000028 _Bfree



Disassembly of section .entry:

00000000 <__reset>:
#if NIOS2_ICACHE_SIZE > 0 && defined(ALT_ALLOW_CODE_AT_RESET) && !defined(ALT_SIM_OPTIMIZE)
    /* Assume the instruction cache size is always a power of two. */
#if NIOS2_ICACHE_SIZE > 0x8000
    movhi r2, %hi(NIOS2_ICACHE_SIZE)
#else
    movui r2, NIOS2_ICACHE_SIZE
   0:	00840014 	movui	r2,4096
#endif

0:
    initi r2
   4:	1001483a 	initi	r2
    addi r2, r2, -NIOS2_ICACHE_LINE_SIZE
   8:	10bff804 	addi	r2,r2,-32
    bgt r2, zero, 0b
   c:	00bffd16 	blt	zero,r2,4 <__alt_mem_sram+0xf7e00004>
 * Jump to the _start entry point in the .text section if reset code
 * is allowed or if optimizing for RTL simulation.
 */
#if defined(ALT_ALLOW_CODE_AT_RESET) || defined(ALT_SIM_OPTIMIZE)
    /* Jump to the _start entry point in the .text section. */
    movhi r1, %hi(_start)
  10:	00400034 	movhi	at,0
    ori r1, r1, %lo(_start)
  14:	08406f14 	ori	at,at,444
    jmp r1
  18:	0800683a 	jmp	at
  1c:	00000000 	call	0 <__reset>

Disassembly of section .exceptions:

00000020 <alt_exception>:

#else /* ALT_EXCEPTION_STACK disabled */
        /* 
         * Reserve space on normal stack for registers about to be pushed.
         */
        addi  sp, sp, -76
  20:	deffed04 	addi	sp,sp,-76
         * documentation for details).
         *
         * Leave a gap in the stack frame at 4(sp) for the muldiv handler to
         * store zero into.
         */
        stw   ra,  0(sp)
  24:	dfc00015 	stw	ra,0(sp)
        stw   r1,   8(sp)
  28:	d8400215 	stw	at,8(sp)
        stw   r2,  12(sp)
  2c:	d8800315 	stw	r2,12(sp)
        stw   r3,  16(sp)
  30:	d8c00415 	stw	r3,16(sp)
        stw   r4,  20(sp)
  34:	d9000515 	stw	r4,20(sp)
        stw   r5,  24(sp)
  38:	d9400615 	stw	r5,24(sp)
        stw   r6,  28(sp)
  3c:	d9800715 	stw	r6,28(sp)
        stw   r7,  32(sp)
  40:	d9c00815 	stw	r7,32(sp)
        rdctl r5, estatus   /* Read early to avoid usage stall */
  44:	000b307a 	rdctl	r5,estatus
        stw   r8,  36(sp)
  48:	da000915 	stw	r8,36(sp)
        stw   r9,  40(sp)
  4c:	da400a15 	stw	r9,40(sp)
        stw   r10, 44(sp)
  50:	da800b15 	stw	r10,44(sp)
        stw   r11, 48(sp)
  54:	dac00c15 	stw	r11,48(sp)
        stw   r12, 52(sp)
  58:	db000d15 	stw	r12,52(sp)
        stw   r13, 56(sp)
  5c:	db400e15 	stw	r13,56(sp)
        stw   r14, 60(sp)
  60:	db800f15 	stw	r14,60(sp)
        stw   r15, 64(sp)
  64:	dbc01015 	stw	r15,64(sp)
        /*
         * ea-4 contains the address of the instruction being executed
         * when the exception occured. For interrupt exceptions, we will
         * will be re-issue the isntruction. Store it in 72(sp)
         */
        stw   r5,  68(sp)  /* estatus */
  68:	d9401115 	stw	r5,68(sp)
        addi  r15, ea, -4  /* instruction that caused exception */
  6c:	ebffff04 	addi	r15,ea,-4
        stw   r15,  72(sp)
  70:	dbc01215 	stw	r15,72(sp)
#else
        /*
         * Test to see if the exception was a software exception or caused 
         * by an external interrupt, and vector accordingly.
         */
        rdctl r4, ipending
  74:	0009313a 	rdctl	r4,ipending
        andi  r2, r5, 1
  78:	2880004c 	andi	r2,r5,1
        beq   r2, zero, .Lnot_irq
  7c:	10000326 	beq	r2,zero,8c <alt_exception+0x6c>
        beq   r4, zero, .Lnot_irq
  80:	20000226 	beq	r4,zero,8c <alt_exception+0x6c>
        /*
         * Now that all necessary registers have been preserved, call 
         * alt_irq_handler() to process the interrupts.
         */

        call alt_irq_handler
  84:	00000ec0 	call	ec <alt_irq_handler>

        .section .exceptions.irqreturn, "xa"

        br    .Lexception_exit
  88:	00000306 	br	98 <alt_exception_unknown+0x4>
         * upon completion, so we write ea (address of instruction *after*
         * the one where the exception occured) into 72(sp). The actual
         * instruction that caused the exception is written in r2, which these
         * handlers will utilize.
         */
        stw   ea,  72(sp)  /* Don't re-issue */
  8c:	df401215 	stw	ea,72(sp)
        ldw   r2, -4(ea)   /* Instruction that caused exception */
  90:	e8bfff17 	ldw	r2,-4(ea)

00000094 <alt_exception_unknown>:
#ifdef NIOS2_HAS_DEBUG_STUB
       /*
        *  Either tell the user now (if there is a debugger attached) or go into
        *  the debug monitor which will loop until a debugger is attached.
        */
        break
  94:	003da03a 	break	0
        /* 
         * Restore the saved registers, so that all general purpose registers 
         * have been restored to their state at the time the interrupt occured.
         */

        ldw   r5,  68(sp)
  98:	d9401117 	ldw	r5,68(sp)
        ldw   ea,  72(sp)  /* This becomes the PC once eret is executed */
  9c:	df401217 	ldw	ea,72(sp)
        ldw   ra,   0(sp)
  a0:	dfc00017 	ldw	ra,0(sp)

        wrctl estatus, r5
  a4:	2801707a 	wrctl	estatus,r5

        ldw   r1,   8(sp)
  a8:	d8400217 	ldw	at,8(sp)
        ldw   r2,  12(sp)
  ac:	d8800317 	ldw	r2,12(sp)
        ldw   r3,  16(sp)
  b0:	d8c00417 	ldw	r3,16(sp)
        ldw   r4,  20(sp)
  b4:	d9000517 	ldw	r4,20(sp)
        ldw   r5,  24(sp)
  b8:	d9400617 	ldw	r5,24(sp)
        ldw   r6,  28(sp)
  bc:	d9800717 	ldw	r6,28(sp)
        ldw   r7,  32(sp)
  c0:	d9c00817 	ldw	r7,32(sp)

#if defined(ALT_EXCEPTION_STACK) && defined(ALT_STACK_CHECK)
        ldw   et, %gprel(alt_exception_old_stack_limit)(gp)
#endif

        ldw   r8,  36(sp)
  c4:	da000917 	ldw	r8,36(sp)
        ldw   r9,  40(sp)
  c8:	da400a17 	ldw	r9,40(sp)
        ldw   r10, 44(sp)
  cc:	da800b17 	ldw	r10,44(sp)
        ldw   r11, 48(sp)
  d0:	dac00c17 	ldw	r11,48(sp)
        ldw   r12, 52(sp)
  d4:	db000d17 	ldw	r12,52(sp)
        ldw   r13, 56(sp)
  d8:	db400e17 	ldw	r13,56(sp)
        ldw   r14, 60(sp)
  dc:	db800f17 	ldw	r14,60(sp)
        ldw   r15, 64(sp)
  e0:	dbc01017 	ldw	r15,64(sp)
        stw   et, %gprel(alt_stack_limit_value)(gp)
        stw   zero, %gprel(alt_exception_old_stack_limit)(gp)
#endif /* ALT_STACK_CHECK */
        ldw   sp,  76(sp)
#else /* ALT_EXCEPTION_STACK disabled */
        addi  sp, sp, 76
  e4:	dec01304 	addi	sp,sp,76

        /*
         * Return to the interrupted instruction.
         */

        eret
  e8:	ef80083a 	eret

000000ec <alt_irq_handler>:
 * instruction is present if the macro ALT_CI_INTERRUPT_VECTOR defined.
 */

void alt_irq_handler (void) __attribute__ ((section (".exceptions")));
void alt_irq_handler (void)
{
  ec:	defff904 	addi	sp,sp,-28
  f0:	dfc00615 	stw	ra,24(sp)
  f4:	df000515 	stw	fp,20(sp)
  f8:	df000504 	addi	fp,sp,20
  
  /*
   * Notify the operating system that we are at interrupt level.
   */ 
  
  ALT_OS_INT_ENTER();
  fc:	0001883a 	nop
#ifndef NIOS2_EIC_PRESENT
static ALT_INLINE alt_u32 ALT_ALWAYS_INLINE alt_irq_pending (void)
{
  alt_u32 active;

  NIOS2_READ_IPENDING (active);
 100:	0005313a 	rdctl	r2,ipending
 104:	e0bffe15 	stw	r2,-8(fp)

  return active;
 108:	e0bffe17 	ldw	r2,-8(fp)
   * Consider the case where the high priority interupt is asserted during
   * the interrupt entry sequence for a lower priority interrupt to see why
   * this is the case.
   */

  active = alt_irq_pending ();
 10c:	e0bffb15 	stw	r2,-20(fp)

  do
  {
    i = 0;
 110:	e03ffd15 	stw	zero,-12(fp)
    mask = 1;
 114:	00800044 	movi	r2,1
 118:	e0bffc15 	stw	r2,-16(fp)
     * called to clear the interrupt condition.
     */

    do
    {
      if (active & mask)
 11c:	e0fffb17 	ldw	r3,-20(fp)
 120:	e0bffc17 	ldw	r2,-16(fp)
 124:	1884703a 	and	r2,r3,r2
 128:	10001426 	beq	r2,zero,17c <alt_irq_handler+0x90>
      { 
#ifdef ALT_ENHANCED_INTERRUPT_API_PRESENT
        alt_irq[i].handler(alt_irq[i].context); 
 12c:	00800074 	movhi	r2,1
 130:	109aad04 	addi	r2,r2,27316
 134:	e0fffd17 	ldw	r3,-12(fp)
 138:	180690fa 	slli	r3,r3,3
 13c:	10c5883a 	add	r2,r2,r3
 140:	10c00017 	ldw	r3,0(r2)
 144:	00800074 	movhi	r2,1
 148:	109aad04 	addi	r2,r2,27316
 14c:	e13ffd17 	ldw	r4,-12(fp)
 150:	200890fa 	slli	r4,r4,3
 154:	1105883a 	add	r2,r2,r4
 158:	10800104 	addi	r2,r2,4
 15c:	10800017 	ldw	r2,0(r2)
 160:	1009883a 	mov	r4,r2
 164:	183ee83a 	callr	r3
#else
        alt_irq[i].handler(alt_irq[i].context, i); 
#endif
        break;
 168:	0001883a 	nop
#ifndef NIOS2_EIC_PRESENT
static ALT_INLINE alt_u32 ALT_ALWAYS_INLINE alt_irq_pending (void)
{
  alt_u32 active;

  NIOS2_READ_IPENDING (active);
 16c:	0005313a 	rdctl	r2,ipending
 170:	e0bfff15 	stw	r2,-4(fp)

  return active;
 174:	e0bfff17 	ldw	r2,-4(fp)
 178:	00000706 	br	198 <alt_irq_handler+0xac>
      }
      mask <<= 1;
 17c:	e0bffc17 	ldw	r2,-16(fp)
 180:	1085883a 	add	r2,r2,r2
 184:	e0bffc15 	stw	r2,-16(fp)
      i++;
 188:	e0bffd17 	ldw	r2,-12(fp)
 18c:	10800044 	addi	r2,r2,1
 190:	e0bffd15 	stw	r2,-12(fp)

    } while (1);
 194:	003fe106 	br	11c <__alt_mem_sram+0xf7e0011c>

    active = alt_irq_pending ();
 198:	e0bffb15 	stw	r2,-20(fp)
    
  } while (active);
 19c:	e0bffb17 	ldw	r2,-20(fp)
 1a0:	103fdb1e 	bne	r2,zero,110 <__alt_mem_sram+0xf7e00110>

  /*
   * Notify the operating system that interrupt processing is complete.
   */ 

  ALT_OS_INT_EXIT();
 1a4:	0001883a 	nop
}
 1a8:	e037883a 	mov	sp,fp
 1ac:	dfc00117 	ldw	ra,4(sp)
 1b0:	df000017 	ldw	fp,0(sp)
 1b4:	dec00204 	addi	sp,sp,8
 1b8:	f800283a 	ret

Disassembly of section .text:

000001bc <_start>:

    /* Assume the data cache size is always a power of two. */
#if NIOS2_DCACHE_SIZE > 0x8000
    movhi r2, %hi(NIOS2_DCACHE_SIZE)
#else
    movui r2, NIOS2_DCACHE_SIZE
     1bc:	00820014 	movui	r2,2048
#endif

0:
    initd 0(r2)
     1c0:	10000033 	initd	0(r2)
#ifdef NIOS2_ECC_PRESENT
    addi r2, r2, -4
#else
    addi r2, r2, -NIOS2_DCACHE_LINE_SIZE
     1c4:	10bff804 	addi	r2,r2,-32
#endif
    bgt r2, zero, 0b
     1c8:	00bffd16 	blt	zero,r2,1c0 <__alt_mem_sram+0xf7e001c0>

    /*
     * Now that the caches are initialized, set up the stack pointer and global pointer.
     * The values provided by the linker are assumed to be correctly aligned.
     */
    movhi sp, %hi(__alt_stack_pointer)
     1cc:	06c20034 	movhi	sp,2048
    ori sp, sp, %lo(__alt_stack_pointer)
     1d0:	dec00014 	ori	sp,sp,0
    movhi gp, %hi(_gp)
     1d4:	06800074 	movhi	gp,1
    ori gp, gp, %lo(_gp)
     1d8:	d6b3ca14 	ori	gp,gp,53032
 */
#ifndef ALT_SIM_OPTIMIZE
    /* Log that the BSS is about to be cleared. */
    ALT_LOG_PUTS(alt_log_msg_bss)

    movhi r2, %hi(__bss_start)
     1dc:	00800074 	movhi	r2,1
    ori r2, r2, %lo(__bss_start)
     1e0:	109a9514 	ori	r2,r2,27220

    movhi r3, %hi(__bss_end)
     1e4:	00c00074 	movhi	r3,1
    ori r3, r3, %lo(__bss_end)
     1e8:	18daed14 	ori	r3,r3,27572

    beq r2, r3, 1f
     1ec:	10c00326 	beq	r2,r3,1fc <_start+0x40>

0:
    stw zero, (r2)
     1f0:	10000015 	stw	zero,0(r2)
    addi r2, r2, 4
     1f4:	10800104 	addi	r2,r2,4
    bltu r2, r3, 0b
     1f8:	10fffd36 	bltu	r2,r3,1f0 <__alt_mem_sram+0xf7e001f0>
     * section aren't defined until alt_load() has been called).
     */
    mov   et, zero
#endif

    call alt_load
     1fc:	00104340 	call	10434 <alt_load>

    /* Log that alt_main is about to be called. */
    ALT_LOG_PUTS(alt_log_msg_alt_main)

    /* Call the C entry point. It should never return. */
    call alt_main
     200:	00105d80 	call	105d8 <alt_main>

00000204 <alt_after_alt_main>:

    /* Wait in infinite loop in case alt_main does return. */
alt_after_alt_main:
    br alt_after_alt_main
     204:	003fff06 	br	204 <__alt_mem_sram+0xf7e00204>

00000208 <maxmin>:
*
******************************************************************************/
void UsbSoftReset();
//--------------------------------------
int maxmin(int no, int max, int min)
{
     208:	defffc04 	addi	sp,sp,-16
     20c:	df000315 	stw	fp,12(sp)
     210:	df000304 	addi	fp,sp,12
     214:	e13ffd15 	stw	r4,-12(fp)
     218:	e17ffe15 	stw	r5,-8(fp)
     21c:	e1bfff15 	stw	r6,-4(fp)
 if(no>max) {no=max;}
     220:	e0bffd17 	ldw	r2,-12(fp)
     224:	e0fffe17 	ldw	r3,-8(fp)
     228:	1880020e 	bge	r3,r2,234 <maxmin+0x2c>
     22c:	e0bffe17 	ldw	r2,-8(fp)
     230:	e0bffd15 	stw	r2,-12(fp)
 if(no<min) {no=min;}
     234:	e0fffd17 	ldw	r3,-12(fp)
     238:	e0bfff17 	ldw	r2,-4(fp)
     23c:	1880020e 	bge	r3,r2,248 <maxmin+0x40>
     240:	e0bfff17 	ldw	r2,-4(fp)
     244:	e0bffd15 	stw	r2,-12(fp)

 return(no);
     248:	e0bffd17 	ldw	r2,-12(fp)
}
     24c:	e037883a 	mov	sp,fp
     250:	df000017 	ldw	fp,0(sp)
     254:	dec00104 	addi	sp,sp,4
     258:	f800283a 	ret

0000025c <main>:
//
//                                Main function
//
//----------------------------------------------------------------------------------------//
int main(void)
{
     25c:	defff604 	addi	sp,sp,-40
     260:	dfc00915 	stw	ra,36(sp)
     264:	df000815 	stw	fp,32(sp)
     268:	df000804 	addi	fp,sp,32
    alt_u16 intStat;
    alt_u16 usb_ctl_val;
    static alt_u16 ctl_reg = 0;
    static alt_u16 no_device = 0;
    alt_u16 fs_device = 0;
     26c:	e03ffa8d 	sth	zero,-22(fp)
    int button_value;
    alt_u16 px = 320;
     270:	00805004 	movi	r2,320
     274:	e0bff88d 	sth	r2,-30(fp)
    alt_u16 py = 240; 
     278:	00803c04 	movi	r2,240
     27c:	e0bff90d 	sth	r2,-28(fp)
    signed char  dx = 0;
     280:	e03ff985 	stb	zero,-26(fp)
    signed char  dy = 0; 
     284:	e03ff9c5 	stb	zero,-25(fp)
    alt_u8  pbutton = 0;
     288:	e03ffb05 	stb	zero,-20(fp)
    alt_u8 toggle=0;
     28c:	e03ffa05 	stb	zero,-24(fp)
    alt_u8 data_size;
    volatile unsigned int *MOUSEX_PIO = (unsigned int*)0x08001050; //make a pointer to access the PIO block
     290:	00820034 	movhi	r2,2048
     294:	10841404 	addi	r2,r2,4176
     298:	e0bffc15 	stw	r2,-16(fp)
    volatile unsigned int *MOUSEY_PIO = (unsigned int*)0x08001040;
     29c:	00820034 	movhi	r2,2048
     2a0:	10841004 	addi	r2,r2,4160
     2a4:	e0bffd15 	stw	r2,-12(fp)
    //VGA display initial
    

    //----------------------------------------SIE1 initial---------------------------------------------------//
USB_HOT_PLUG:
    UsbSoftReset();
     2a8:	0003c740 	call	3c74 <UsbSoftReset>
    UsbWrite (HPI_SIE1_MSG_ADR, 0);
     2ac:	01005104 	movi	r4,324
     2b0:	000b883a 	mov	r5,zero
     2b4:	0003be80 	call	3be8 <UsbWrite>
    UsbWrite (HOST1_STAT_REG, 0xFFFF);
     2b8:	01302414 	movui	r4,49296
     2bc:	017fffd4 	movui	r5,65535
     2c0:	0003be80 	call	3be8 <UsbWrite>
              
    /* Set HUSB_pEOT time */
    UsbWrite(HUSB_pEOT, 600); // adjust the according to your USB device speed
     2c4:	01006d04 	movi	r4,436
     2c8:	01409604 	movi	r5,600
     2cc:	0003be80 	call	3be8 <UsbWrite>
     
    usb_ctl_val = SOFEOP1_TO_CPU_EN | RESUME1_TO_HPI_EN;// | SOFEOP1_TO_HPI_EN;
     2d0:	00811004 	movi	r2,1088
     2d4:	e0bff80d 	sth	r2,-32(fp)
    UsbWrite(HPI_IRQ_ROUTING_REG, usb_ctl_val);
     2d8:	e0bff80b 	ldhu	r2,-32(fp)
     2dc:	01005084 	movi	r4,322
     2e0:	100b883a 	mov	r5,r2
     2e4:	0003be80 	call	3be8 <UsbWrite>
    
    intStat = A_CHG_IRQ_EN | SOF_EOP_IRQ_EN ;
     2e8:	00808404 	movi	r2,528
     2ec:	e0bffe0d 	sth	r2,-8(fp)
    UsbWrite(HOST1_IRQ_EN_REG, intStat); 
     2f0:	e0bffe0b 	ldhu	r2,-8(fp)
     2f4:	01302314 	movui	r4,49292
     2f8:	100b883a 	mov	r5,r2
     2fc:	0003be80 	call	3be8 <UsbWrite>

    UsbWrite(COMM_R0,0x0000);//reset time 
     300:	01007104 	movi	r4,452
     304:	000b883a 	mov	r5,zero
     308:	0003be80 	call	3be8 <UsbWrite>
    UsbWrite(COMM_R1,0x0000);  //port number
     30c:	01007184 	movi	r4,454
     310:	000b883a 	mov	r5,zero
     314:	0003be80 	call	3be8 <UsbWrite>
    UsbWrite(COMM_R2,0x0000);  //r1
     318:	01007204 	movi	r4,456
     31c:	000b883a 	mov	r5,zero
     320:	0003be80 	call	3be8 <UsbWrite>
    UsbWrite(COMM_R3,0x0000);  //r1
     324:	01007284 	movi	r4,458
     328:	000b883a 	mov	r5,zero
     32c:	0003be80 	call	3be8 <UsbWrite>
    UsbWrite(COMM_R4,0x0000);  //r1
     330:	01007304 	movi	r4,460
     334:	000b883a 	mov	r5,zero
     338:	0003be80 	call	3be8 <UsbWrite>
    UsbWrite(COMM_R5,0x0000);  //r1
     33c:	01007384 	movi	r4,462
     340:	000b883a 	mov	r5,zero
     344:	0003be80 	call	3be8 <UsbWrite>
    UsbWrite(COMM_R6,0x0000);  //r1
     348:	01007404 	movi	r4,464
     34c:	000b883a 	mov	r5,zero
     350:	0003be80 	call	3be8 <UsbWrite>
    UsbWrite(COMM_R7,0x0000);  //r1
     354:	01007484 	movi	r4,466
     358:	000b883a 	mov	r5,zero
     35c:	0003be80 	call	3be8 <UsbWrite>
    UsbWrite(COMM_R8,0x0000);  //r1
     360:	01007504 	movi	r4,468
     364:	000b883a 	mov	r5,zero
     368:	0003be80 	call	3be8 <UsbWrite>
    UsbWrite(COMM_R9,0x0000);  //r1
     36c:	01007584 	movi	r4,470
     370:	000b883a 	mov	r5,zero
     374:	0003be80 	call	3be8 <UsbWrite>
    UsbWrite(COMM_R10,0x0000);  //r1
     378:	01007604 	movi	r4,472
     37c:	000b883a 	mov	r5,zero
     380:	0003be80 	call	3be8 <UsbWrite>
    UsbWrite(COMM_R11,0x0000);  //r1
     384:	01007684 	movi	r4,474
     388:	000b883a 	mov	r5,zero
     38c:	0003be80 	call	3be8 <UsbWrite>
    UsbWrite(COMM_R12,0x0000);  //r1
     390:	01007704 	movi	r4,476
     394:	000b883a 	mov	r5,zero
     398:	0003be80 	call	3be8 <UsbWrite>
    UsbWrite(COMM_R13,0x0000);  //r1    
     39c:	01007784 	movi	r4,478
     3a0:	000b883a 	mov	r5,zero
     3a4:	0003be80 	call	3be8 <UsbWrite>
    UsbWrite(COMM_INT_NUM,HUSB_SIE1_INIT_INT); //HUSB_SIE1_INIT_INT
     3a8:	01007084 	movi	r4,450
     3ac:	01401c84 	movi	r5,114
     3b0:	0003be80 	call	3be8 <UsbWrite>
    IOWR(CY7C67200_BASE,HPI_MAILBOX,0xCE01);
     3b4:	00f38054 	movui	r3,52737
     3b8:	00824034 	movhi	r2,2304
     3bc:	10800904 	addi	r2,r2,36
     3c0:	10c00035 	stwio	r3,0(r2)
     
    while (!(IORD(CY7C67200_BASE,HPI_STATUS) & 0xFFFF) )  //read sie1 msg register
     3c4:	0001883a 	nop
     3c8:	00824034 	movhi	r2,2304
     3cc:	10800b04 	addi	r2,r2,44
     3d0:	10800037 	ldwio	r2,0(r2)
     3d4:	10bfffcc 	andi	r2,r2,65535
     3d8:	103ffb26 	beq	r2,zero,3c8 <__alt_mem_sram+0xf7e003c8>
    {
    }
    while (IORD(CY7C67200_BASE,HPI_MAILBOX) != COMM_ACK) 
     3dc:	0001883a 	nop
     3e0:	00824034 	movhi	r2,2304
     3e4:	10800904 	addi	r2,r2,36
     3e8:	10800037 	ldwio	r2,0(r2)
     3ec:	1083fb58 	cmpnei	r2,r2,4077
     3f0:	10000826 	beq	r2,zero,414 <main+0x1b8>
    {
        printf("[ERROR]:routine mailbox data is %x\n",IORD(CY7C67200_BASE,HPI_MAILBOX));
     3f4:	00824034 	movhi	r2,2304
     3f8:	10800904 	addi	r2,r2,36
     3fc:	10800037 	ldwio	r2,0(r2)
     400:	01000074 	movhi	r4,1
     404:	210a7c04 	addi	r4,r4,10736
     408:	100b883a 	mov	r5,r2
     40c:	0003d5c0 	call	3d5c <printf>
        goto USB_HOT_PLUG;
     410:	003fa506 	br	2a8 <__alt_mem_sram+0xf7e002a8>
    }
    
  
    //usleep(30*1000);    
    UsbWrite(COMM_INT_NUM,HUSB_RESET_INT); //husb reset
     414:	01007084 	movi	r4,450
     418:	01401d04 	movi	r5,116
     41c:	0003be80 	call	3be8 <UsbWrite>
    UsbWrite(COMM_R0,0x003c);//reset time 
     420:	01007104 	movi	r4,452
     424:	01400f04 	movi	r5,60
     428:	0003be80 	call	3be8 <UsbWrite>
    UsbWrite(COMM_R1,0x0000);  //port number
     42c:	01007184 	movi	r4,454
     430:	000b883a 	mov	r5,zero
     434:	0003be80 	call	3be8 <UsbWrite>
    UsbWrite(COMM_R2,0x0000);  //r1
     438:	01007204 	movi	r4,456
     43c:	000b883a 	mov	r5,zero
     440:	0003be80 	call	3be8 <UsbWrite>
    UsbWrite(COMM_R3,0x0000);  //r1
     444:	01007284 	movi	r4,458
     448:	000b883a 	mov	r5,zero
     44c:	0003be80 	call	3be8 <UsbWrite>
    UsbWrite(COMM_R4,0x0000);  //r1
     450:	01007304 	movi	r4,460
     454:	000b883a 	mov	r5,zero
     458:	0003be80 	call	3be8 <UsbWrite>
    UsbWrite(COMM_R5,0x0000);  //r1
     45c:	01007384 	movi	r4,462
     460:	000b883a 	mov	r5,zero
     464:	0003be80 	call	3be8 <UsbWrite>
    UsbWrite(COMM_R6,0x0000);  //r1
     468:	01007404 	movi	r4,464
     46c:	000b883a 	mov	r5,zero
     470:	0003be80 	call	3be8 <UsbWrite>
    UsbWrite(COMM_R7,0x0000);  //r1
     474:	01007484 	movi	r4,466
     478:	000b883a 	mov	r5,zero
     47c:	0003be80 	call	3be8 <UsbWrite>
    UsbWrite(COMM_R8,0x0000);  //r1
     480:	01007504 	movi	r4,468
     484:	000b883a 	mov	r5,zero
     488:	0003be80 	call	3be8 <UsbWrite>
    UsbWrite(COMM_R9,0x0000);  //r1
     48c:	01007584 	movi	r4,470
     490:	000b883a 	mov	r5,zero
     494:	0003be80 	call	3be8 <UsbWrite>
    UsbWrite(COMM_R10,0x0000);  //r1
     498:	01007604 	movi	r4,472
     49c:	000b883a 	mov	r5,zero
     4a0:	0003be80 	call	3be8 <UsbWrite>
    UsbWrite(COMM_R11,0x0000);  //r1
     4a4:	01007684 	movi	r4,474
     4a8:	000b883a 	mov	r5,zero
     4ac:	0003be80 	call	3be8 <UsbWrite>
    UsbWrite(COMM_R12,0x0000);  //r1
     4b0:	01007704 	movi	r4,476
     4b4:	000b883a 	mov	r5,zero
     4b8:	0003be80 	call	3be8 <UsbWrite>
    UsbWrite(COMM_R13,0x0000);  //r1    
     4bc:	01007784 	movi	r4,478
     4c0:	000b883a 	mov	r5,zero
     4c4:	0003be80 	call	3be8 <UsbWrite>

    IOWR(CY7C67200_BASE,HPI_MAILBOX,0xCE01);
     4c8:	00f38054 	movui	r3,52737
     4cc:	00824034 	movhi	r2,2304
     4d0:	10800904 	addi	r2,r2,36
     4d4:	10c00035 	stwio	r3,0(r2)
  
    while (IORD(CY7C67200_BASE,HPI_MAILBOX) != COMM_ACK) 
     4d8:	0001883a 	nop
     4dc:	00824034 	movhi	r2,2304
     4e0:	10800904 	addi	r2,r2,36
     4e4:	10800037 	ldwio	r2,0(r2)
     4e8:	1083fb58 	cmpnei	r2,r2,4077
     4ec:	10000826 	beq	r2,zero,510 <main+0x2b4>
    {
        printf("[ERROR]:routine mailbox data is %x\n",IORD(CY7C67200_BASE,HPI_MAILBOX));
     4f0:	00824034 	movhi	r2,2304
     4f4:	10800904 	addi	r2,r2,36
     4f8:	10800037 	ldwio	r2,0(r2)
     4fc:	01000074 	movhi	r4,1
     500:	210a7c04 	addi	r4,r4,10736
     504:	100b883a 	mov	r5,r2
     508:	0003d5c0 	call	3d5c <printf>
        goto USB_HOT_PLUG;
     50c:	003f6606 	br	2a8 <__alt_mem_sram+0xf7e002a8>
    }

    //usleep(30*1000);    
    ctl_reg = USB1_CTL_REG;
     510:	00b02284 	movi	r2,-16246
     514:	d0a6cb0d 	sth	r2,-25812(gp)
    no_device = (A_DP_STAT | A_DM_STAT);
     518:	008c0004 	movi	r2,12288
     51c:	d0a6cb8d 	sth	r2,-25810(gp)
    fs_device = A_DP_STAT;
     520:	00880004 	movi	r2,8192
     524:	e0bffa8d 	sth	r2,-22(fp)
    
    usb_ctl_val = UsbRead(ctl_reg);
     528:	d0a6cb0b 	ldhu	r2,-25812(gp)
     52c:	10bfffcc 	andi	r2,r2,65535
     530:	1009883a 	mov	r4,r2
     534:	0003c340 	call	3c34 <UsbRead>
     538:	e0bff80d 	sth	r2,-32(fp)
   
    if (!(usb_ctl_val & no_device))
     53c:	d0a6cb8b 	ldhu	r2,-25810(gp)
     540:	e0fff80b 	ldhu	r3,-32(fp)
     544:	1884703a 	and	r2,r3,r2
     548:	10bfffcc 	andi	r2,r2,65535
     54c:	10001a1e 	bne	r2,zero,5b8 <main+0x35c>
    {
      printf("\n[INFO]: no device is present in SIE1!\n");
     550:	01000074 	movhi	r4,1
     554:	210a8504 	addi	r4,r4,10772
     558:	0003e500 	call	3e50 <puts>
      printf("[INFO]: please insert a USB mouse in SIE1!\n");
     55c:	01000074 	movhi	r4,1
     560:	210a8f04 	addi	r4,r4,10812
     564:	0003e500 	call	3e50 <puts>
      while (!(usb_ctl_val & no_device))
     568:	00000d06 	br	5a0 <main+0x344>
      {
       
         usb_ctl_val = UsbRead(ctl_reg);
     56c:	d0a6cb0b 	ldhu	r2,-25812(gp)
     570:	10bfffcc 	andi	r2,r2,65535
     574:	1009883a 	mov	r4,r2
     578:	0003c340 	call	3c34 <UsbRead>
     57c:	e0bff80d 	sth	r2,-32(fp)
         if(usb_ctl_val & no_device)
     580:	d0a6cb8b 	ldhu	r2,-25810(gp)
     584:	e0fff80b 	ldhu	r3,-32(fp)
     588:	1884703a 	and	r2,r3,r2
     58c:	10bfffcc 	andi	r2,r2,65535
     590:	10000126 	beq	r2,zero,598 <main+0x33c>
           goto USB_HOT_PLUG;
     594:	003f4406 	br	2a8 <__alt_mem_sram+0xf7e002a8>
       
         usleep(2000);
     598:	0101f404 	movi	r4,2000
     59c:	00108ec0 	call	108ec <usleep>
   
    if (!(usb_ctl_val & no_device))
    {
      printf("\n[INFO]: no device is present in SIE1!\n");
      printf("[INFO]: please insert a USB mouse in SIE1!\n");
      while (!(usb_ctl_val & no_device))
     5a0:	d0a6cb8b 	ldhu	r2,-25810(gp)
     5a4:	e0fff80b 	ldhu	r3,-32(fp)
     5a8:	1884703a 	and	r2,r3,r2
     5ac:	10bfffcc 	andi	r2,r2,65535
     5b0:	103fee26 	beq	r2,zero,56c <__alt_mem_sram+0xf7e0056c>
     5b4:	00000c06 	br	5e8 <main+0x38c>
      }
    }
    else
    {
        /* check for low speed or full speed by reading D+ and D- lines */    
        if (usb_ctl_val & fs_device)
     5b8:	e0fff80b 	ldhu	r3,-32(fp)
     5bc:	e0bffa8b 	ldhu	r2,-22(fp)
     5c0:	1884703a 	and	r2,r3,r2
     5c4:	10bfffcc 	andi	r2,r2,65535
     5c8:	10000426 	beq	r2,zero,5dc <main+0x380>
        {
            printf("[INFO]: full speed device\n");
     5cc:	01000074 	movhi	r4,1
     5d0:	210a9a04 	addi	r4,r4,10856
     5d4:	0003e500 	call	3e50 <puts>
     5d8:	00000306 	br	5e8 <main+0x38c>
            
        }
        else
        {
            printf("[INFO]: low speed device\n");            
     5dc:	01000074 	movhi	r4,1
     5e0:	210aa104 	addi	r4,r4,10884
     5e4:	0003e500 	call	3e50 <puts>

    //printf("[SIE1 INIT]:USB 1 Control Register reg is %x\n",UsbRead(0xC08A));
    
    //------------------------------------------------------set address -----------------------------------------------------------------
    //the starting address
    IOWR(CY7C67200_BASE,HPI_ADDR,0x0500); //the start address       
     5e8:	00c14004 	movi	r3,1280
     5ec:	00824034 	movhi	r2,2304
     5f0:	10800a04 	addi	r2,r2,40
     5f4:	10c00035 	stwio	r3,0(r2)
    IOWR(CY7C67200_BASE,HPI_DATA,0x050C); 
     5f8:	00c14304 	movi	r3,1292
     5fc:	00824034 	movhi	r2,2304
     600:	10800804 	addi	r2,r2,32
     604:	10c00035 	stwio	r3,0(r2)
    IOWR(CY7C67200_BASE,HPI_DATA,0x0008); //4 port number
     608:	00c00204 	movi	r3,8
     60c:	00824034 	movhi	r2,2304
     610:	10800804 	addi	r2,r2,32
     614:	10c00035 	stwio	r3,0(r2)
    IOWR(CY7C67200_BASE,HPI_DATA,0x00D0);
     618:	00c03404 	movi	r3,208
     61c:	00824034 	movhi	r2,2304
     620:	10800804 	addi	r2,r2,32
     624:	10c00035 	stwio	r3,0(r2)
    IOWR(CY7C67200_BASE,HPI_DATA,0x0001);
     628:	00c00044 	movi	r3,1
     62c:	00824034 	movhi	r2,2304
     630:	10800804 	addi	r2,r2,32
     634:	10c00035 	stwio	r3,0(r2)
    IOWR(CY7C67200_BASE,HPI_DATA,0x0013);
     638:	00c004c4 	movi	r3,19
     63c:	00824034 	movhi	r2,2304
     640:	10800804 	addi	r2,r2,32
     644:	10c00035 	stwio	r3,0(r2)
    IOWR(CY7C67200_BASE,HPI_DATA,0x0514);
     648:	00c14504 	movi	r3,1300
     64c:	00824034 	movhi	r2,2304
     650:	10800804 	addi	r2,r2,32
     654:	10c00035 	stwio	r3,0(r2)
    
    //td content 4 bytes
    IOWR(CY7C67200_BASE,HPI_DATA,0x0500);
     658:	00c14004 	movi	r3,1280
     65c:	00824034 	movhi	r2,2304
     660:	10800804 	addi	r2,r2,32
     664:	10c00035 	stwio	r3,0(r2)
    IOWR(CY7C67200_BASE,HPI_DATA,0x0002);//device address   
     668:	00c00084 	movi	r3,2
     66c:	00824034 	movhi	r2,2304
     670:	10800804 	addi	r2,r2,32
     674:	10c00035 	stwio	r3,0(r2)
    IOWR(CY7C67200_BASE,HPI_DATA,0x0000);
     678:	0007883a 	mov	r3,zero
     67c:	00824034 	movhi	r2,2304
     680:	10800804 	addi	r2,r2,32
     684:	10c00035 	stwio	r3,0(r2)
    IOWR(CY7C67200_BASE,HPI_DATA,0x0000);
     688:	0007883a 	mov	r3,zero
     68c:	00824034 	movhi	r2,2304
     690:	10800804 	addi	r2,r2,32
     694:	10c00035 	stwio	r3,0(r2)
    
    IOWR(CY7C67200_BASE,HPI_DATA,0x0000); //don't care
     698:	0007883a 	mov	r3,zero
     69c:	00824034 	movhi	r2,2304
     6a0:	10800804 	addi	r2,r2,32
     6a4:	10c00035 	stwio	r3,0(r2)
    IOWR(CY7C67200_BASE,HPI_DATA,0x0000);//port number
     6a8:	0007883a 	mov	r3,zero
     6ac:	00824034 	movhi	r2,2304
     6b0:	10800804 	addi	r2,r2,32
     6b4:	10c00035 	stwio	r3,0(r2)
    IOWR(CY7C67200_BASE,HPI_DATA,0x0090);//device address
     6b8:	00c02404 	movi	r3,144
     6bc:	00824034 	movhi	r2,2304
     6c0:	10800804 	addi	r2,r2,32
     6c4:	10c00035 	stwio	r3,0(r2)
    IOWR(CY7C67200_BASE,HPI_DATA,0x0041);
     6c8:	00c01044 	movi	r3,65
     6cc:	00824034 	movhi	r2,2304
     6d0:	10800804 	addi	r2,r2,32
     6d4:	10c00035 	stwio	r3,0(r2)
    IOWR(CY7C67200_BASE,HPI_DATA,0x0013);
     6d8:	00c004c4 	movi	r3,19
     6dc:	00824034 	movhi	r2,2304
     6e0:	10800804 	addi	r2,r2,32
     6e4:	10c00035 	stwio	r3,0(r2)
    IOWR(CY7C67200_BASE,HPI_DATA,0x0000);
     6e8:	0007883a 	mov	r3,zero
     6ec:	00824034 	movhi	r2,2304
     6f0:	10800804 	addi	r2,r2,32
     6f4:	10c00035 	stwio	r3,0(r2)
     
    UsbWrite(HUSB_SIE1_pCurrentTDPtr,0x0500); //HUSB_SIE1_pCurrentTDPtr
     6f8:	01006c04 	movi	r4,432
     6fc:	01414004 	movi	r5,1280
     700:	0003be80 	call	3be8 <UsbWrite>
    
   
    while (!(IORD(CY7C67200_BASE,HPI_STATUS) & HPI_STATUS_SIE1msg_FLAG) )  //read sie1 msg register
     704:	00004906 	br	82c <main+0x5d0>
    {
        //the starting address
           IOWR(CY7C67200_BASE,HPI_ADDR,0x0500); //the start address       
     708:	00c14004 	movi	r3,1280
     70c:	00824034 	movhi	r2,2304
     710:	10800a04 	addi	r2,r2,40
     714:	10c00035 	stwio	r3,0(r2)
           IOWR(CY7C67200_BASE,HPI_DATA,0x050C); 
     718:	00c14304 	movi	r3,1292
     71c:	00824034 	movhi	r2,2304
     720:	10800804 	addi	r2,r2,32
     724:	10c00035 	stwio	r3,0(r2)
           IOWR(CY7C67200_BASE,HPI_DATA,0x0008); //4 port number
     728:	00c00204 	movi	r3,8
     72c:	00824034 	movhi	r2,2304
     730:	10800804 	addi	r2,r2,32
     734:	10c00035 	stwio	r3,0(r2)
           IOWR(CY7C67200_BASE,HPI_DATA,0x00D0);
     738:	00c03404 	movi	r3,208
     73c:	00824034 	movhi	r2,2304
     740:	10800804 	addi	r2,r2,32
     744:	10c00035 	stwio	r3,0(r2)
           IOWR(CY7C67200_BASE,HPI_DATA,0x0001);
     748:	00c00044 	movi	r3,1
     74c:	00824034 	movhi	r2,2304
     750:	10800804 	addi	r2,r2,32
     754:	10c00035 	stwio	r3,0(r2)
           IOWR(CY7C67200_BASE,HPI_DATA,0x0013);
     758:	00c004c4 	movi	r3,19
     75c:	00824034 	movhi	r2,2304
     760:	10800804 	addi	r2,r2,32
     764:	10c00035 	stwio	r3,0(r2)
           IOWR(CY7C67200_BASE,HPI_DATA,0x0514); 
     768:	00c14504 	movi	r3,1300
     76c:	00824034 	movhi	r2,2304
     770:	10800804 	addi	r2,r2,32
     774:	10c00035 	stwio	r3,0(r2)
    
           //td content 4 bytes
           IOWR(CY7C67200_BASE,HPI_DATA,0x0500);
     778:	00c14004 	movi	r3,1280
     77c:	00824034 	movhi	r2,2304
     780:	10800804 	addi	r2,r2,32
     784:	10c00035 	stwio	r3,0(r2)
           IOWR(CY7C67200_BASE,HPI_DATA,0x0002);//device address   
     788:	00c00084 	movi	r3,2
     78c:	00824034 	movhi	r2,2304
     790:	10800804 	addi	r2,r2,32
     794:	10c00035 	stwio	r3,0(r2)
           IOWR(CY7C67200_BASE,HPI_DATA,0x0000);
     798:	0007883a 	mov	r3,zero
     79c:	00824034 	movhi	r2,2304
     7a0:	10800804 	addi	r2,r2,32
     7a4:	10c00035 	stwio	r3,0(r2)
           IOWR(CY7C67200_BASE,HPI_DATA,0x0000);
     7a8:	0007883a 	mov	r3,zero
     7ac:	00824034 	movhi	r2,2304
     7b0:	10800804 	addi	r2,r2,32
     7b4:	10c00035 	stwio	r3,0(r2)
           //IN 
           IOWR(CY7C67200_BASE,HPI_DATA,0x0000); //don't care
     7b8:	0007883a 	mov	r3,zero
     7bc:	00824034 	movhi	r2,2304
     7c0:	10800804 	addi	r2,r2,32
     7c4:	10c00035 	stwio	r3,0(r2)
           IOWR(CY7C67200_BASE,HPI_DATA,0x0000);//port number
     7c8:	0007883a 	mov	r3,zero
     7cc:	00824034 	movhi	r2,2304
     7d0:	10800804 	addi	r2,r2,32
     7d4:	10c00035 	stwio	r3,0(r2)
           IOWR(CY7C67200_BASE,HPI_DATA,0x0090);//device address
     7d8:	00c02404 	movi	r3,144
     7dc:	00824034 	movhi	r2,2304
     7e0:	10800804 	addi	r2,r2,32
     7e4:	10c00035 	stwio	r3,0(r2)
           IOWR(CY7C67200_BASE,HPI_DATA,0x0041);
     7e8:	00c01044 	movi	r3,65
     7ec:	00824034 	movhi	r2,2304
     7f0:	10800804 	addi	r2,r2,32
     7f4:	10c00035 	stwio	r3,0(r2)
           IOWR(CY7C67200_BASE,HPI_DATA,0x0013);
     7f8:	00c004c4 	movi	r3,19
     7fc:	00824034 	movhi	r2,2304
     800:	10800804 	addi	r2,r2,32
     804:	10c00035 	stwio	r3,0(r2)
           IOWR(CY7C67200_BASE,HPI_DATA,0x0000);
     808:	0007883a 	mov	r3,zero
     80c:	00824034 	movhi	r2,2304
     810:	10800804 	addi	r2,r2,32
     814:	10c00035 	stwio	r3,0(r2)
        
           UsbWrite(HUSB_SIE1_pCurrentTDPtr,0x0500); //HUSB_SIE1_pCurrentTDPtr 
     818:	01006c04 	movi	r4,432
     81c:	01414004 	movi	r5,1280
     820:	0003be80 	call	3be8 <UsbWrite>
           usleep(10*1000);
     824:	0109c404 	movi	r4,10000
     828:	00108ec0 	call	108ec <usleep>
    IOWR(CY7C67200_BASE,HPI_DATA,0x0000);
     
    UsbWrite(HUSB_SIE1_pCurrentTDPtr,0x0500); //HUSB_SIE1_pCurrentTDPtr
    
   
    while (!(IORD(CY7C67200_BASE,HPI_STATUS) & HPI_STATUS_SIE1msg_FLAG) )  //read sie1 msg register
     82c:	00824034 	movhi	r2,2304
     830:	10800b04 	addi	r2,r2,44
     834:	10800037 	ldwio	r2,0(r2)
     838:	1080040c 	andi	r2,r2,16
     83c:	103fb226 	beq	r2,zero,708 <__alt_mem_sram+0xf7e00708>
           UsbWrite(HUSB_SIE1_pCurrentTDPtr,0x0500); //HUSB_SIE1_pCurrentTDPtr 
           usleep(10*1000);
    }
    
    //UsbRead(0x01B8);
    usb_ctl_val = UsbRead(HPI_SIE1_MSG_ADR);
     840:	01005104 	movi	r4,324
     844:	0003c340 	call	3c34 <UsbRead>
     848:	e0bff80d 	sth	r2,-32(fp)
    UsbWrite(HPI_SIE1_MSG_ADR, 0);
     84c:	01005104 	movi	r4,324
     850:	000b883a 	mov	r5,zero
     854:	0003be80 	call	3be8 <UsbWrite>
    while (usb_ctl_val != 0x1000)  //read sie1 msg register
     858:	00000d06 	br	890 <main+0x634>
    {
       if(usb_ctl_val == 0x000)
     85c:	e0bff80b 	ldhu	r2,-32(fp)
     860:	10000526 	beq	r2,zero,878 <main+0x61c>
       {
       }
       else
       {
        printf("[SIE1 MSG]:SIE1 msg reg is %x\n",usb_ctl_val);
     864:	e0bff80b 	ldhu	r2,-32(fp)
     868:	01000074 	movhi	r4,1
     86c:	210aa804 	addi	r4,r4,10912
     870:	100b883a 	mov	r5,r2
     874:	0003d5c0 	call	3d5c <printf>
       }
       usb_ctl_val = UsbRead(HPI_SIE1_MSG_ADR);
     878:	01005104 	movi	r4,324
     87c:	0003c340 	call	3c34 <UsbRead>
     880:	e0bff80d 	sth	r2,-32(fp)
       UsbWrite(HPI_SIE1_MSG_ADR, 0);
     884:	01005104 	movi	r4,324
     888:	000b883a 	mov	r5,zero
     88c:	0003be80 	call	3be8 <UsbWrite>
    }
    
    //UsbRead(0x01B8);
    usb_ctl_val = UsbRead(HPI_SIE1_MSG_ADR);
    UsbWrite(HPI_SIE1_MSG_ADR, 0);
    while (usb_ctl_val != 0x1000)  //read sie1 msg register
     890:	e0bff80b 	ldhu	r2,-32(fp)
     894:	10840018 	cmpnei	r2,r2,4096
     898:	103ff01e 	bne	r2,zero,85c <__alt_mem_sram+0xf7e0085c>
       UsbWrite(HPI_SIE1_MSG_ADR, 0);
       //goto USB_HOT_PLUG;
      
    }

    IOWR(CY7C67200_BASE,HPI_ADDR,0x0506);
     89c:	00c14184 	movi	r3,1286
     8a0:	00824034 	movhi	r2,2304
     8a4:	10800a04 	addi	r2,r2,40
     8a8:	10c00035 	stwio	r3,0(r2)
    printf("[ENUM PROCESS]:step 3 TD Status Byte is %x\n",IORD(CY7C67200_BASE,HPI_DATA));
     8ac:	00824034 	movhi	r2,2304
     8b0:	10800804 	addi	r2,r2,32
     8b4:	10800037 	ldwio	r2,0(r2)
     8b8:	01000074 	movhi	r4,1
     8bc:	210ab004 	addi	r4,r4,10944
     8c0:	100b883a 	mov	r5,r2
     8c4:	0003d5c0 	call	3d5c <printf>
    
    IOWR(CY7C67200_BASE,HPI_ADDR,0x0508);
     8c8:	00c14204 	movi	r3,1288
     8cc:	00824034 	movhi	r2,2304
     8d0:	10800a04 	addi	r2,r2,40
     8d4:	10c00035 	stwio	r3,0(r2)
    usb_ctl_val = IORD(CY7C67200_BASE,HPI_DATA);
     8d8:	00824034 	movhi	r2,2304
     8dc:	10800804 	addi	r2,r2,32
     8e0:	10800037 	ldwio	r2,0(r2)
     8e4:	e0bff80d 	sth	r2,-32(fp)
    printf("[ENUM PROCESS]:step 3 TD Control Byte is %x\n",usb_ctl_val);
     8e8:	e0bff80b 	ldhu	r2,-32(fp)
     8ec:	01000074 	movhi	r4,1
     8f0:	210abb04 	addi	r4,r4,10988
     8f4:	100b883a 	mov	r5,r2
     8f8:	0003d5c0 	call	3d5c <printf>
    while (usb_ctl_val != 0x03) 
     8fc:	e0bff80b 	ldhu	r2,-32(fp)
     900:	108000e0 	cmpeqi	r2,r2,3
     904:	10001a1e 	bne	r2,zero,970 <main+0x714>
    {
       IORD(CY7C67200_BASE,HPI_STATUS);
     908:	00824034 	movhi	r2,2304
     90c:	10800b04 	addi	r2,r2,44
     910:	10800037 	ldwio	r2,0(r2)
       if(UsbRead(HPI_SIE1_MSG_ADR) == 0x1000)
     914:	01005104 	movi	r4,324
     918:	0003c340 	call	3c34 <UsbRead>
     91c:	10bfffcc 	andi	r2,r2,65535
     920:	10840018 	cmpnei	r2,r2,4096
     924:	1000091e 	bne	r2,zero,94c <main+0x6f0>
       {
           UsbWrite(HPI_SIE1_MSG_ADR, 0);
     928:	01005104 	movi	r4,324
     92c:	000b883a 	mov	r5,zero
     930:	0003be80 	call	3be8 <UsbWrite>
           
           while (!(IORD(CY7C67200_BASE,HPI_STATUS) & HPI_STATUS_SIE1msg_FLAG) )  //read sie1 msg register
     934:	0001883a 	nop
     938:	00824034 	movhi	r2,2304
     93c:	10800b04 	addi	r2,r2,44
     940:	10800037 	ldwio	r2,0(r2)
     944:	1080040c 	andi	r2,r2,16
     948:	103ffb26 	beq	r2,zero,938 <__alt_mem_sram+0xf7e00938>
           {
           }
        }
           //usleep(1000);
           IOWR(CY7C67200_BASE,HPI_ADDR,0x0508);
     94c:	00c14204 	movi	r3,1288
     950:	00824034 	movhi	r2,2304
     954:	10800a04 	addi	r2,r2,40
     958:	10c00035 	stwio	r3,0(r2)
           usb_ctl_val = IORD(CY7C67200_BASE,HPI_DATA); 
     95c:	00824034 	movhi	r2,2304
     960:	10800804 	addi	r2,r2,32
     964:	10800037 	ldwio	r2,0(r2)
     968:	e0bff80d 	sth	r2,-32(fp)
           
           goto USB_HOT_PLUG;
     96c:	003e4e06 	br	2a8 <__alt_mem_sram+0xf7e002a8>
    }    
       
    printf("------------[ENUM PROCESS]:set address pass!---------------\n");
     970:	01000074 	movhi	r4,1
     974:	210ac704 	addi	r4,r4,11036
     978:	0003e500 	call	3e50 <puts>
    
    
    //-------------------------------get device descriptor-1 -----------------------------------//
    //the starting address
    IOWR(CY7C67200_BASE,HPI_ADDR,0x0500); //the start address       
     97c:	00c14004 	movi	r3,1280
     980:	00824034 	movhi	r2,2304
     984:	10800a04 	addi	r2,r2,40
     988:	10c00035 	stwio	r3,0(r2)
    IOWR(CY7C67200_BASE,HPI_DATA,0x050C); 
     98c:	00c14304 	movi	r3,1292
     990:	00824034 	movhi	r2,2304
     994:	10800804 	addi	r2,r2,32
     998:	10c00035 	stwio	r3,0(r2)
    IOWR(CY7C67200_BASE,HPI_DATA,0x0008); //4 port number
     99c:	00c00204 	movi	r3,8
     9a0:	00824034 	movhi	r2,2304
     9a4:	10800804 	addi	r2,r2,32
     9a8:	10c00035 	stwio	r3,0(r2)
    IOWR(CY7C67200_BASE,HPI_DATA,0x02D0); //device address
     9ac:	00c0b404 	movi	r3,720
     9b0:	00824034 	movhi	r2,2304
     9b4:	10800804 	addi	r2,r2,32
     9b8:	10c00035 	stwio	r3,0(r2)
    IOWR(CY7C67200_BASE,HPI_DATA,0x0001);
     9bc:	00c00044 	movi	r3,1
     9c0:	00824034 	movhi	r2,2304
     9c4:	10800804 	addi	r2,r2,32
     9c8:	10c00035 	stwio	r3,0(r2)
    IOWR(CY7C67200_BASE,HPI_DATA,0x0013);
     9cc:	00c004c4 	movi	r3,19
     9d0:	00824034 	movhi	r2,2304
     9d4:	10800804 	addi	r2,r2,32
     9d8:	10c00035 	stwio	r3,0(r2)
    IOWR(CY7C67200_BASE,HPI_DATA,0x0514);
     9dc:	00c14504 	movi	r3,1300
     9e0:	00824034 	movhi	r2,2304
     9e4:	10800804 	addi	r2,r2,32
     9e8:	10c00035 	stwio	r3,0(r2)
    
    //td content 4 bytes
    IOWR(CY7C67200_BASE,HPI_DATA,0x0680);//c
     9ec:	00c1a004 	movi	r3,1664
     9f0:	00824034 	movhi	r2,2304
     9f4:	10800804 	addi	r2,r2,32
     9f8:	10c00035 	stwio	r3,0(r2)
    IOWR(CY7C67200_BASE,HPI_DATA,0x0100);
     9fc:	00c04004 	movi	r3,256
     a00:	00824034 	movhi	r2,2304
     a04:	10800804 	addi	r2,r2,32
     a08:	10c00035 	stwio	r3,0(r2)
    IOWR(CY7C67200_BASE,HPI_DATA,0x0000);
     a0c:	0007883a 	mov	r3,zero
     a10:	00824034 	movhi	r2,2304
     a14:	10800804 	addi	r2,r2,32
     a18:	10c00035 	stwio	r3,0(r2)
    IOWR(CY7C67200_BASE,HPI_DATA,0x0008);
     a1c:	00c00204 	movi	r3,8
     a20:	00824034 	movhi	r2,2304
     a24:	10800804 	addi	r2,r2,32
     a28:	10c00035 	stwio	r3,0(r2)
    
    //data phase IN
    IOWR(CY7C67200_BASE,HPI_DATA,0x052C); //
     a2c:	00c14b04 	movi	r3,1324
     a30:	00824034 	movhi	r2,2304
     a34:	10800804 	addi	r2,r2,32
     a38:	10c00035 	stwio	r3,0(r2)
    IOWR(CY7C67200_BASE,HPI_DATA,0x0008);//
     a3c:	00c00204 	movi	r3,8
     a40:	00824034 	movhi	r2,2304
     a44:	10800804 	addi	r2,r2,32
     a48:	10c00035 	stwio	r3,0(r2)
    IOWR(CY7C67200_BASE,HPI_DATA,0x0290);//
     a4c:	00c0a404 	movi	r3,656
     a50:	00824034 	movhi	r2,2304
     a54:	10800804 	addi	r2,r2,32
     a58:	10c00035 	stwio	r3,0(r2)
    IOWR(CY7C67200_BASE,HPI_DATA,0x0041);
     a5c:	00c01044 	movi	r3,65
     a60:	00824034 	movhi	r2,2304
     a64:	10800804 	addi	r2,r2,32
     a68:	10c00035 	stwio	r3,0(r2)
    IOWR(CY7C67200_BASE,HPI_DATA,0x0013);
     a6c:	00c004c4 	movi	r3,19
     a70:	00824034 	movhi	r2,2304
     a74:	10800804 	addi	r2,r2,32
     a78:	10c00035 	stwio	r3,0(r2)
    IOWR(CY7C67200_BASE,HPI_DATA,0x0520);
     a7c:	00c14804 	movi	r3,1312
     a80:	00824034 	movhi	r2,2304
     a84:	10800804 	addi	r2,r2,32
     a88:	10c00035 	stwio	r3,0(r2)
    
//    //status phase
    IOWR(CY7C67200_BASE,HPI_DATA,0x0000); //don't care
     a8c:	0007883a 	mov	r3,zero
     a90:	00824034 	movhi	r2,2304
     a94:	10800804 	addi	r2,r2,32
     a98:	10c00035 	stwio	r3,0(r2)
    IOWR(CY7C67200_BASE,HPI_DATA,0x0000);//port number
     a9c:	0007883a 	mov	r3,zero
     aa0:	00824034 	movhi	r2,2304
     aa4:	10800804 	addi	r2,r2,32
     aa8:	10c00035 	stwio	r3,0(r2)
    IOWR(CY7C67200_BASE,HPI_DATA,0x0210);//device address
     aac:	00c08404 	movi	r3,528
     ab0:	00824034 	movhi	r2,2304
     ab4:	10800804 	addi	r2,r2,32
     ab8:	10c00035 	stwio	r3,0(r2)
    IOWR(CY7C67200_BASE,HPI_DATA,0x0041);
     abc:	00c01044 	movi	r3,65
     ac0:	00824034 	movhi	r2,2304
     ac4:	10800804 	addi	r2,r2,32
     ac8:	10c00035 	stwio	r3,0(r2)
    IOWR(CY7C67200_BASE,HPI_DATA,0x0013);
     acc:	00c004c4 	movi	r3,19
     ad0:	00824034 	movhi	r2,2304
     ad4:	10800804 	addi	r2,r2,32
     ad8:	10c00035 	stwio	r3,0(r2)
    IOWR(CY7C67200_BASE,HPI_DATA,0x0000);
     adc:	0007883a 	mov	r3,zero
     ae0:	00824034 	movhi	r2,2304
     ae4:	10800804 	addi	r2,r2,32
     ae8:	10c00035 	stwio	r3,0(r2)
    
     
    UsbWrite(HUSB_SIE1_pCurrentTDPtr,0x0500); //HUSB_SIE1_pCurrentTDPtr
     aec:	01006c04 	movi	r4,432
     af0:	01414004 	movi	r5,1280
     af4:	0003be80 	call	3be8 <UsbWrite>
    
   //usleep(10*1000);
    while (!(IORD(CY7C67200_BASE,HPI_STATUS) & HPI_STATUS_SIE1msg_FLAG) )  //read sie1 msg register
     af8:	00006106 	br	c80 <main+0xa24>
    {
    //the starting address
    IOWR(CY7C67200_BASE,HPI_ADDR,0x0500); //the start address       
     afc:	00c14004 	movi	r3,1280
     b00:	00824034 	movhi	r2,2304
     b04:	10800a04 	addi	r2,r2,40
     b08:	10c00035 	stwio	r3,0(r2)
    IOWR(CY7C67200_BASE,HPI_DATA,0x050C); 
     b0c:	00c14304 	movi	r3,1292
     b10:	00824034 	movhi	r2,2304
     b14:	10800804 	addi	r2,r2,32
     b18:	10c00035 	stwio	r3,0(r2)
    IOWR(CY7C67200_BASE,HPI_DATA,0x0008); //4 port number
     b1c:	00c00204 	movi	r3,8
     b20:	00824034 	movhi	r2,2304
     b24:	10800804 	addi	r2,r2,32
     b28:	10c00035 	stwio	r3,0(r2)
    IOWR(CY7C67200_BASE,HPI_DATA,0x02D0); //device address
     b2c:	00c0b404 	movi	r3,720
     b30:	00824034 	movhi	r2,2304
     b34:	10800804 	addi	r2,r2,32
     b38:	10c00035 	stwio	r3,0(r2)
    IOWR(CY7C67200_BASE,HPI_DATA,0x0001);
     b3c:	00c00044 	movi	r3,1
     b40:	00824034 	movhi	r2,2304
     b44:	10800804 	addi	r2,r2,32
     b48:	10c00035 	stwio	r3,0(r2)
    IOWR(CY7C67200_BASE,HPI_DATA,0x0013);
     b4c:	00c004c4 	movi	r3,19
     b50:	00824034 	movhi	r2,2304
     b54:	10800804 	addi	r2,r2,32
     b58:	10c00035 	stwio	r3,0(r2)
    IOWR(CY7C67200_BASE,HPI_DATA,0x0514);
     b5c:	00c14504 	movi	r3,1300
     b60:	00824034 	movhi	r2,2304
     b64:	10800804 	addi	r2,r2,32
     b68:	10c00035 	stwio	r3,0(r2)
    
    //td content 4 bytes
    IOWR(CY7C67200_BASE,HPI_DATA,0x0680);
     b6c:	00c1a004 	movi	r3,1664
     b70:	00824034 	movhi	r2,2304
     b74:	10800804 	addi	r2,r2,32
     b78:	10c00035 	stwio	r3,0(r2)
    IOWR(CY7C67200_BASE,HPI_DATA,0x0100);
     b7c:	00c04004 	movi	r3,256
     b80:	00824034 	movhi	r2,2304
     b84:	10800804 	addi	r2,r2,32
     b88:	10c00035 	stwio	r3,0(r2)
    IOWR(CY7C67200_BASE,HPI_DATA,0x0000);
     b8c:	0007883a 	mov	r3,zero
     b90:	00824034 	movhi	r2,2304
     b94:	10800804 	addi	r2,r2,32
     b98:	10c00035 	stwio	r3,0(r2)
    IOWR(CY7C67200_BASE,HPI_DATA,0x0008);
     b9c:	00c00204 	movi	r3,8
     ba0:	00824034 	movhi	r2,2304
     ba4:	10800804 	addi	r2,r2,32
     ba8:	10c00035 	stwio	r3,0(r2)
    
    //data phase IN
    IOWR(CY7C67200_BASE,HPI_DATA,0x052C); //
     bac:	00c14b04 	movi	r3,1324
     bb0:	00824034 	movhi	r2,2304
     bb4:	10800804 	addi	r2,r2,32
     bb8:	10c00035 	stwio	r3,0(r2)
    IOWR(CY7C67200_BASE,HPI_DATA,0x0008);//
     bbc:	00c00204 	movi	r3,8
     bc0:	00824034 	movhi	r2,2304
     bc4:	10800804 	addi	r2,r2,32
     bc8:	10c00035 	stwio	r3,0(r2)
    IOWR(CY7C67200_BASE,HPI_DATA,0x0290);//
     bcc:	00c0a404 	movi	r3,656
     bd0:	00824034 	movhi	r2,2304
     bd4:	10800804 	addi	r2,r2,32
     bd8:	10c00035 	stwio	r3,0(r2)
    IOWR(CY7C67200_BASE,HPI_DATA,0x0041);
     bdc:	00c01044 	movi	r3,65
     be0:	00824034 	movhi	r2,2304
     be4:	10800804 	addi	r2,r2,32
     be8:	10c00035 	stwio	r3,0(r2)
    IOWR(CY7C67200_BASE,HPI_DATA,0x0013);
     bec:	00c004c4 	movi	r3,19
     bf0:	00824034 	movhi	r2,2304
     bf4:	10800804 	addi	r2,r2,32
     bf8:	10c00035 	stwio	r3,0(r2)
    IOWR(CY7C67200_BASE,HPI_DATA,0x0520);
     bfc:	00c14804 	movi	r3,1312
     c00:	00824034 	movhi	r2,2304
     c04:	10800804 	addi	r2,r2,32
     c08:	10c00035 	stwio	r3,0(r2)
    
//    //status phase
    IOWR(CY7C67200_BASE,HPI_DATA,0x0000); //don't care
     c0c:	0007883a 	mov	r3,zero
     c10:	00824034 	movhi	r2,2304
     c14:	10800804 	addi	r2,r2,32
     c18:	10c00035 	stwio	r3,0(r2)
    IOWR(CY7C67200_BASE,HPI_DATA,0x0000);//port number
     c1c:	0007883a 	mov	r3,zero
     c20:	00824034 	movhi	r2,2304
     c24:	10800804 	addi	r2,r2,32
     c28:	10c00035 	stwio	r3,0(r2)
    IOWR(CY7C67200_BASE,HPI_DATA,0x0210);//device address
     c2c:	00c08404 	movi	r3,528
     c30:	00824034 	movhi	r2,2304
     c34:	10800804 	addi	r2,r2,32
     c38:	10c00035 	stwio	r3,0(r2)
    IOWR(CY7C67200_BASE,HPI_DATA,0x0041);
     c3c:	00c01044 	movi	r3,65
     c40:	00824034 	movhi	r2,2304
     c44:	10800804 	addi	r2,r2,32
     c48:	10c00035 	stwio	r3,0(r2)
    IOWR(CY7C67200_BASE,HPI_DATA,0x0013);
     c4c:	00c004c4 	movi	r3,19
     c50:	00824034 	movhi	r2,2304
     c54:	10800804 	addi	r2,r2,32
     c58:	10c00035 	stwio	r3,0(r2)
    IOWR(CY7C67200_BASE,HPI_DATA,0x0000);
     c5c:	0007883a 	mov	r3,zero
     c60:	00824034 	movhi	r2,2304
     c64:	10800804 	addi	r2,r2,32
     c68:	10c00035 	stwio	r3,0(r2)
    
     
    UsbWrite(HUSB_SIE1_pCurrentTDPtr,0x0500); //HUSB_SIE1_pCurrentTDPtr
     c6c:	01006c04 	movi	r4,432
     c70:	01414004 	movi	r5,1280
     c74:	0003be80 	call	3be8 <UsbWrite>
    usleep(10*1000);
     c78:	0109c404 	movi	r4,10000
     c7c:	00108ec0 	call	108ec <usleep>
    
     
    UsbWrite(HUSB_SIE1_pCurrentTDPtr,0x0500); //HUSB_SIE1_pCurrentTDPtr
    
   //usleep(10*1000);
    while (!(IORD(CY7C67200_BASE,HPI_STATUS) & HPI_STATUS_SIE1msg_FLAG) )  //read sie1 msg register
     c80:	00824034 	movhi	r2,2304
     c84:	10800b04 	addi	r2,r2,44
     c88:	10800037 	ldwio	r2,0(r2)
     c8c:	1080040c 	andi	r2,r2,16
     c90:	103f9a26 	beq	r2,zero,afc <__alt_mem_sram+0xf7e00afc>
    UsbWrite(HUSB_SIE1_pCurrentTDPtr,0x0500); //HUSB_SIE1_pCurrentTDPtr
    usleep(10*1000);
    }
    
    //UsbRead(0x01B8);
    usb_ctl_val = UsbRead(HPI_SIE1_MSG_ADR);
     c94:	01005104 	movi	r4,324
     c98:	0003c340 	call	3c34 <UsbRead>
     c9c:	e0bff80d 	sth	r2,-32(fp)
    UsbWrite(HPI_SIE1_MSG_ADR, 0);
     ca0:	01005104 	movi	r4,324
     ca4:	000b883a 	mov	r5,zero
     ca8:	0003be80 	call	3be8 <UsbWrite>
    while (usb_ctl_val != 0x1000)  //read sie1 msg register
     cac:	00000d06 	br	ce4 <main+0xa88>
    {
       if(usb_ctl_val == 0x000)
     cb0:	e0bff80b 	ldhu	r2,-32(fp)
     cb4:	10000526 	beq	r2,zero,ccc <main+0xa70>
       {
       }
       else
       {
        printf("[SIE1 MSG]:SIE1 msg reg is %x\n",usb_ctl_val);
     cb8:	e0bff80b 	ldhu	r2,-32(fp)
     cbc:	01000074 	movhi	r4,1
     cc0:	210aa804 	addi	r4,r4,10912
     cc4:	100b883a 	mov	r5,r2
     cc8:	0003d5c0 	call	3d5c <printf>
       }
       usb_ctl_val = UsbRead(HPI_SIE1_MSG_ADR);
     ccc:	01005104 	movi	r4,324
     cd0:	0003c340 	call	3c34 <UsbRead>
     cd4:	e0bff80d 	sth	r2,-32(fp)
       UsbWrite(HPI_SIE1_MSG_ADR, 0);
     cd8:	01005104 	movi	r4,324
     cdc:	000b883a 	mov	r5,zero
     ce0:	0003be80 	call	3be8 <UsbWrite>
    }
    
    //UsbRead(0x01B8);
    usb_ctl_val = UsbRead(HPI_SIE1_MSG_ADR);
    UsbWrite(HPI_SIE1_MSG_ADR, 0);
    while (usb_ctl_val != 0x1000)  //read sie1 msg register
     ce4:	e0bff80b 	ldhu	r2,-32(fp)
     ce8:	10840018 	cmpnei	r2,r2,4096
     cec:	103ff01e 	bne	r2,zero,cb0 <__alt_mem_sram+0xf7e00cb0>
       usb_ctl_val = UsbRead(HPI_SIE1_MSG_ADR);
       UsbWrite(HPI_SIE1_MSG_ADR, 0);
      
    }

    IOWR(CY7C67200_BASE,HPI_ADDR,0x0506);
     cf0:	00c14184 	movi	r3,1286
     cf4:	00824034 	movhi	r2,2304
     cf8:	10800a04 	addi	r2,r2,40
     cfc:	10c00035 	stwio	r3,0(r2)
    printf("[ENUM PROCESS]:step 4 TD Status Byte is %x\n",IORD(CY7C67200_BASE,HPI_DATA));
     d00:	00824034 	movhi	r2,2304
     d04:	10800804 	addi	r2,r2,32
     d08:	10800037 	ldwio	r2,0(r2)
     d0c:	01000074 	movhi	r4,1
     d10:	210ad604 	addi	r4,r4,11096
     d14:	100b883a 	mov	r5,r2
     d18:	0003d5c0 	call	3d5c <printf>
    
    IOWR(CY7C67200_BASE,HPI_ADDR,0x0508);
     d1c:	00c14204 	movi	r3,1288
     d20:	00824034 	movhi	r2,2304
     d24:	10800a04 	addi	r2,r2,40
     d28:	10c00035 	stwio	r3,0(r2)
    usb_ctl_val = IORD(CY7C67200_BASE,HPI_DATA);
     d2c:	00824034 	movhi	r2,2304
     d30:	10800804 	addi	r2,r2,32
     d34:	10800037 	ldwio	r2,0(r2)
     d38:	e0bff80d 	sth	r2,-32(fp)
    printf("[ENUM PROCESS]:step 4 TD Control Byte is %x\n",usb_ctl_val);
     d3c:	e0bff80b 	ldhu	r2,-32(fp)
     d40:	01000074 	movhi	r4,1
     d44:	210ae104 	addi	r4,r4,11140
     d48:	100b883a 	mov	r5,r2
     d4c:	0003d5c0 	call	3d5c <printf>
    while (usb_ctl_val != 0x03) 
     d50:	00001906 	br	db8 <main+0xb5c>
    {
       IORD(CY7C67200_BASE,HPI_STATUS);
     d54:	00824034 	movhi	r2,2304
     d58:	10800b04 	addi	r2,r2,44
     d5c:	10800037 	ldwio	r2,0(r2)
       if(UsbRead(HPI_SIE1_MSG_ADR) == 0x1000)
     d60:	01005104 	movi	r4,324
     d64:	0003c340 	call	3c34 <UsbRead>
     d68:	10bfffcc 	andi	r2,r2,65535
     d6c:	10840018 	cmpnei	r2,r2,4096
     d70:	1000091e 	bne	r2,zero,d98 <main+0xb3c>
       {
           UsbWrite(HPI_SIE1_MSG_ADR, 0);
     d74:	01005104 	movi	r4,324
     d78:	000b883a 	mov	r5,zero
     d7c:	0003be80 	call	3be8 <UsbWrite>
           
           while (!(IORD(CY7C67200_BASE,HPI_STATUS) & HPI_STATUS_SIE1msg_FLAG) )  //read sie1 msg register
     d80:	0001883a 	nop
     d84:	00824034 	movhi	r2,2304
     d88:	10800b04 	addi	r2,r2,44
     d8c:	10800037 	ldwio	r2,0(r2)
     d90:	1080040c 	andi	r2,r2,16
     d94:	103ffb26 	beq	r2,zero,d84 <__alt_mem_sram+0xf7e00d84>
           {
           }
        }
           //usleep(1000);
           IOWR(CY7C67200_BASE,HPI_ADDR,0x0508);
     d98:	00c14204 	movi	r3,1288
     d9c:	00824034 	movhi	r2,2304
     da0:	10800a04 	addi	r2,r2,40
     da4:	10c00035 	stwio	r3,0(r2)
           usb_ctl_val = IORD(CY7C67200_BASE,HPI_DATA); 
     da8:	00824034 	movhi	r2,2304
     dac:	10800804 	addi	r2,r2,32
     db0:	10800037 	ldwio	r2,0(r2)
     db4:	e0bff80d 	sth	r2,-32(fp)
    printf("[ENUM PROCESS]:step 4 TD Status Byte is %x\n",IORD(CY7C67200_BASE,HPI_DATA));
    
    IOWR(CY7C67200_BASE,HPI_ADDR,0x0508);
    usb_ctl_val = IORD(CY7C67200_BASE,HPI_DATA);
    printf("[ENUM PROCESS]:step 4 TD Control Byte is %x\n",usb_ctl_val);
    while (usb_ctl_val != 0x03) 
     db8:	e0bff80b 	ldhu	r2,-32(fp)
     dbc:	108000d8 	cmpnei	r2,r2,3
     dc0:	103fe41e 	bne	r2,zero,d54 <__alt_mem_sram+0xf7e00d54>
           //usleep(1000);
           IOWR(CY7C67200_BASE,HPI_ADDR,0x0508);
           usb_ctl_val = IORD(CY7C67200_BASE,HPI_DATA); 
    }    
       
    printf("---------------[ENUM PROCESS]:get device descriptor-1 pass!-----------------\n");
     dc4:	01000074 	movhi	r4,1
     dc8:	210aed04 	addi	r4,r4,11188
     dcc:	0003e500 	call	3e50 <puts>
    
    
    //--------------------------------get device descriptor-1---------------------------------------------//
    //get device descriptor
    //the starting address
    IOWR(CY7C67200_BASE,HPI_ADDR,0x0500); //the start address       
     dd0:	00c14004 	movi	r3,1280
     dd4:	00824034 	movhi	r2,2304
     dd8:	10800a04 	addi	r2,r2,40
     ddc:	10c00035 	stwio	r3,0(r2)
    IOWR(CY7C67200_BASE,HPI_DATA,0x050C); 
     de0:	00c14304 	movi	r3,1292
     de4:	00824034 	movhi	r2,2304
     de8:	10800804 	addi	r2,r2,32
     dec:	10c00035 	stwio	r3,0(r2)
    IOWR(CY7C67200_BASE,HPI_DATA,0x0008); //4 port number
     df0:	00c00204 	movi	r3,8
     df4:	00824034 	movhi	r2,2304
     df8:	10800804 	addi	r2,r2,32
     dfc:	10c00035 	stwio	r3,0(r2)
    IOWR(CY7C67200_BASE,HPI_DATA,0x02D0); //device address
     e00:	00c0b404 	movi	r3,720
     e04:	00824034 	movhi	r2,2304
     e08:	10800804 	addi	r2,r2,32
     e0c:	10c00035 	stwio	r3,0(r2)
    IOWR(CY7C67200_BASE,HPI_DATA,0x0001);
     e10:	00c00044 	movi	r3,1
     e14:	00824034 	movhi	r2,2304
     e18:	10800804 	addi	r2,r2,32
     e1c:	10c00035 	stwio	r3,0(r2)
    IOWR(CY7C67200_BASE,HPI_DATA,0x0013);
     e20:	00c004c4 	movi	r3,19
     e24:	00824034 	movhi	r2,2304
     e28:	10800804 	addi	r2,r2,32
     e2c:	10c00035 	stwio	r3,0(r2)
    IOWR(CY7C67200_BASE,HPI_DATA,0x0514);
     e30:	00c14504 	movi	r3,1300
     e34:	00824034 	movhi	r2,2304
     e38:	10800804 	addi	r2,r2,32
     e3c:	10c00035 	stwio	r3,0(r2)
    
    //td content 4 bytes
    IOWR(CY7C67200_BASE,HPI_DATA,0x0680);//c
     e40:	00c1a004 	movi	r3,1664
     e44:	00824034 	movhi	r2,2304
     e48:	10800804 	addi	r2,r2,32
     e4c:	10c00035 	stwio	r3,0(r2)
    IOWR(CY7C67200_BASE,HPI_DATA,0x0100);//e
     e50:	00c04004 	movi	r3,256
     e54:	00824034 	movhi	r2,2304
     e58:	10800804 	addi	r2,r2,32
     e5c:	10c00035 	stwio	r3,0(r2)
    IOWR(CY7C67200_BASE,HPI_DATA,0x0000);//0
     e60:	0007883a 	mov	r3,zero
     e64:	00824034 	movhi	r2,2304
     e68:	10800804 	addi	r2,r2,32
     e6c:	10c00035 	stwio	r3,0(r2)
    IOWR(CY7C67200_BASE,HPI_DATA,0x0012);//2
     e70:	00c00484 	movi	r3,18
     e74:	00824034 	movhi	r2,2304
     e78:	10800804 	addi	r2,r2,32
     e7c:	10c00035 	stwio	r3,0(r2)
    
    //data phase IN-1
    IOWR(CY7C67200_BASE,HPI_DATA,0x0544); //514
     e80:	00c15104 	movi	r3,1348
     e84:	00824034 	movhi	r2,2304
     e88:	10800804 	addi	r2,r2,32
     e8c:	10c00035 	stwio	r3,0(r2)
    IOWR(CY7C67200_BASE,HPI_DATA,0x0008);//6
     e90:	00c00204 	movi	r3,8
     e94:	00824034 	movhi	r2,2304
     e98:	10800804 	addi	r2,r2,32
     e9c:	10c00035 	stwio	r3,0(r2)
    IOWR(CY7C67200_BASE,HPI_DATA,0x0290);//8
     ea0:	00c0a404 	movi	r3,656
     ea4:	00824034 	movhi	r2,2304
     ea8:	10800804 	addi	r2,r2,32
     eac:	10c00035 	stwio	r3,0(r2)
    IOWR(CY7C67200_BASE,HPI_DATA,0x0041);//a
     eb0:	00c01044 	movi	r3,65
     eb4:	00824034 	movhi	r2,2304
     eb8:	10800804 	addi	r2,r2,32
     ebc:	10c00035 	stwio	r3,0(r2)
    IOWR(CY7C67200_BASE,HPI_DATA,0x0013);//c
     ec0:	00c004c4 	movi	r3,19
     ec4:	00824034 	movhi	r2,2304
     ec8:	10800804 	addi	r2,r2,32
     ecc:	10c00035 	stwio	r3,0(r2)
    IOWR(CY7C67200_BASE,HPI_DATA,0x0520);//e
     ed0:	00c14804 	movi	r3,1312
     ed4:	00824034 	movhi	r2,2304
     ed8:	10800804 	addi	r2,r2,32
     edc:	10c00035 	stwio	r3,0(r2)
    
    //data phase IN-2
    IOWR(CY7C67200_BASE,HPI_DATA,0x054c); //520
     ee0:	00c15304 	movi	r3,1356
     ee4:	00824034 	movhi	r2,2304
     ee8:	10800804 	addi	r2,r2,32
     eec:	10c00035 	stwio	r3,0(r2)
    IOWR(CY7C67200_BASE,HPI_DATA,0x0008);//2
     ef0:	00c00204 	movi	r3,8
     ef4:	00824034 	movhi	r2,2304
     ef8:	10800804 	addi	r2,r2,32
     efc:	10c00035 	stwio	r3,0(r2)
    IOWR(CY7C67200_BASE,HPI_DATA,0x0290);//4
     f00:	00c0a404 	movi	r3,656
     f04:	00824034 	movhi	r2,2304
     f08:	10800804 	addi	r2,r2,32
     f0c:	10c00035 	stwio	r3,0(r2)
    IOWR(CY7C67200_BASE,HPI_DATA,0x0001);//6 //data0
     f10:	00c00044 	movi	r3,1
     f14:	00824034 	movhi	r2,2304
     f18:	10800804 	addi	r2,r2,32
     f1c:	10c00035 	stwio	r3,0(r2)
    IOWR(CY7C67200_BASE,HPI_DATA,0x0013);//8
     f20:	00c004c4 	movi	r3,19
     f24:	00824034 	movhi	r2,2304
     f28:	10800804 	addi	r2,r2,32
     f2c:	10c00035 	stwio	r3,0(r2)
    IOWR(CY7C67200_BASE,HPI_DATA,0x052c);//a
     f30:	00c14b04 	movi	r3,1324
     f34:	00824034 	movhi	r2,2304
     f38:	10800804 	addi	r2,r2,32
     f3c:	10c00035 	stwio	r3,0(r2)
    
    //data phase IN-3
    IOWR(CY7C67200_BASE,HPI_DATA,0x0554); //c
     f40:	00c15504 	movi	r3,1364
     f44:	00824034 	movhi	r2,2304
     f48:	10800804 	addi	r2,r2,32
     f4c:	10c00035 	stwio	r3,0(r2)
    IOWR(CY7C67200_BASE,HPI_DATA,0x0002);//e
     f50:	00c00084 	movi	r3,2
     f54:	00824034 	movhi	r2,2304
     f58:	10800804 	addi	r2,r2,32
     f5c:	10c00035 	stwio	r3,0(r2)
    IOWR(CY7C67200_BASE,HPI_DATA,0x0290);//530
     f60:	00c0a404 	movi	r3,656
     f64:	00824034 	movhi	r2,2304
     f68:	10800804 	addi	r2,r2,32
     f6c:	10c00035 	stwio	r3,0(r2)
    IOWR(CY7C67200_BASE,HPI_DATA,0x0041);//2
     f70:	00c01044 	movi	r3,65
     f74:	00824034 	movhi	r2,2304
     f78:	10800804 	addi	r2,r2,32
     f7c:	10c00035 	stwio	r3,0(r2)
    IOWR(CY7C67200_BASE,HPI_DATA,0x0013);//4
     f80:	00c004c4 	movi	r3,19
     f84:	00824034 	movhi	r2,2304
     f88:	10800804 	addi	r2,r2,32
     f8c:	10c00035 	stwio	r3,0(r2)
    IOWR(CY7C67200_BASE,HPI_DATA,0x0538);//6
     f90:	00c14e04 	movi	r3,1336
     f94:	00824034 	movhi	r2,2304
     f98:	10800804 	addi	r2,r2,32
     f9c:	10c00035 	stwio	r3,0(r2)
    
    //status phase
    IOWR(CY7C67200_BASE,HPI_DATA,0x0000); //538
     fa0:	0007883a 	mov	r3,zero
     fa4:	00824034 	movhi	r2,2304
     fa8:	10800804 	addi	r2,r2,32
     fac:	10c00035 	stwio	r3,0(r2)
    IOWR(CY7C67200_BASE,HPI_DATA,0x0000);//a
     fb0:	0007883a 	mov	r3,zero
     fb4:	00824034 	movhi	r2,2304
     fb8:	10800804 	addi	r2,r2,32
     fbc:	10c00035 	stwio	r3,0(r2)
    IOWR(CY7C67200_BASE,HPI_DATA,0x0210);//c
     fc0:	00c08404 	movi	r3,528
     fc4:	00824034 	movhi	r2,2304
     fc8:	10800804 	addi	r2,r2,32
     fcc:	10c00035 	stwio	r3,0(r2)
    IOWR(CY7C67200_BASE,HPI_DATA,0x0041);//e
     fd0:	00c01044 	movi	r3,65
     fd4:	00824034 	movhi	r2,2304
     fd8:	10800804 	addi	r2,r2,32
     fdc:	10c00035 	stwio	r3,0(r2)
    IOWR(CY7C67200_BASE,HPI_DATA,0x0013);//540
     fe0:	00c004c4 	movi	r3,19
     fe4:	00824034 	movhi	r2,2304
     fe8:	10800804 	addi	r2,r2,32
     fec:	10c00035 	stwio	r3,0(r2)
    IOWR(CY7C67200_BASE,HPI_DATA,0x0000);//2
     ff0:	0007883a 	mov	r3,zero
     ff4:	00824034 	movhi	r2,2304
     ff8:	10800804 	addi	r2,r2,32
     ffc:	10c00035 	stwio	r3,0(r2)
     
    UsbWrite(HUSB_SIE1_pCurrentTDPtr,0x0500); //HUSB_SIE1_pCurrentTDPtr
    1000:	01006c04 	movi	r4,432
    1004:	01414004 	movi	r5,1280
    1008:	0003be80 	call	3be8 <UsbWrite>
    
    //usleep(100*1000);
    //if no message
    while (!(IORD(CY7C67200_BASE,HPI_STATUS) & HPI_STATUS_SIE1msg_FLAG) )  //read sie1 msg register
    100c:	00009106 	br	1254 <main+0xff8>
    {
        //resend the get device descriptor
        //get device descriptor

    //the starting address
    IOWR(CY7C67200_BASE,HPI_ADDR,0x0500); //the start address       
    1010:	00c14004 	movi	r3,1280
    1014:	00824034 	movhi	r2,2304
    1018:	10800a04 	addi	r2,r2,40
    101c:	10c00035 	stwio	r3,0(r2)
    IOWR(CY7C67200_BASE,HPI_DATA,0x050C); 
    1020:	00c14304 	movi	r3,1292
    1024:	00824034 	movhi	r2,2304
    1028:	10800804 	addi	r2,r2,32
    102c:	10c00035 	stwio	r3,0(r2)
    IOWR(CY7C67200_BASE,HPI_DATA,0x0008); //4 port number
    1030:	00c00204 	movi	r3,8
    1034:	00824034 	movhi	r2,2304
    1038:	10800804 	addi	r2,r2,32
    103c:	10c00035 	stwio	r3,0(r2)
    IOWR(CY7C67200_BASE,HPI_DATA,0x02D0); //device address
    1040:	00c0b404 	movi	r3,720
    1044:	00824034 	movhi	r2,2304
    1048:	10800804 	addi	r2,r2,32
    104c:	10c00035 	stwio	r3,0(r2)
    IOWR(CY7C67200_BASE,HPI_DATA,0x0001);
    1050:	00c00044 	movi	r3,1
    1054:	00824034 	movhi	r2,2304
    1058:	10800804 	addi	r2,r2,32
    105c:	10c00035 	stwio	r3,0(r2)
    IOWR(CY7C67200_BASE,HPI_DATA,0x0013);
    1060:	00c004c4 	movi	r3,19
    1064:	00824034 	movhi	r2,2304
    1068:	10800804 	addi	r2,r2,32
    106c:	10c00035 	stwio	r3,0(r2)
    IOWR(CY7C67200_BASE,HPI_DATA,0x0514);
    1070:	00c14504 	movi	r3,1300
    1074:	00824034 	movhi	r2,2304
    1078:	10800804 	addi	r2,r2,32
    107c:	10c00035 	stwio	r3,0(r2)
    
    //td content 4 bytes
    IOWR(CY7C67200_BASE,HPI_DATA,0x0680);//c
    1080:	00c1a004 	movi	r3,1664
    1084:	00824034 	movhi	r2,2304
    1088:	10800804 	addi	r2,r2,32
    108c:	10c00035 	stwio	r3,0(r2)
    IOWR(CY7C67200_BASE,HPI_DATA,0x0100);//e
    1090:	00c04004 	movi	r3,256
    1094:	00824034 	movhi	r2,2304
    1098:	10800804 	addi	r2,r2,32
    109c:	10c00035 	stwio	r3,0(r2)
    IOWR(CY7C67200_BASE,HPI_DATA,0x0000);//0
    10a0:	0007883a 	mov	r3,zero
    10a4:	00824034 	movhi	r2,2304
    10a8:	10800804 	addi	r2,r2,32
    10ac:	10c00035 	stwio	r3,0(r2)
    IOWR(CY7C67200_BASE,HPI_DATA,0x0012);//2
    10b0:	00c00484 	movi	r3,18
    10b4:	00824034 	movhi	r2,2304
    10b8:	10800804 	addi	r2,r2,32
    10bc:	10c00035 	stwio	r3,0(r2)
    
    //data phase IN-1
    IOWR(CY7C67200_BASE,HPI_DATA,0x0544); //514
    10c0:	00c15104 	movi	r3,1348
    10c4:	00824034 	movhi	r2,2304
    10c8:	10800804 	addi	r2,r2,32
    10cc:	10c00035 	stwio	r3,0(r2)
    IOWR(CY7C67200_BASE,HPI_DATA,0x0008);//6
    10d0:	00c00204 	movi	r3,8
    10d4:	00824034 	movhi	r2,2304
    10d8:	10800804 	addi	r2,r2,32
    10dc:	10c00035 	stwio	r3,0(r2)
    IOWR(CY7C67200_BASE,HPI_DATA,0x0290);//8
    10e0:	00c0a404 	movi	r3,656
    10e4:	00824034 	movhi	r2,2304
    10e8:	10800804 	addi	r2,r2,32
    10ec:	10c00035 	stwio	r3,0(r2)
    IOWR(CY7C67200_BASE,HPI_DATA,0x0041);//a
    10f0:	00c01044 	movi	r3,65
    10f4:	00824034 	movhi	r2,2304
    10f8:	10800804 	addi	r2,r2,32
    10fc:	10c00035 	stwio	r3,0(r2)
    IOWR(CY7C67200_BASE,HPI_DATA,0x0013);//c
    1100:	00c004c4 	movi	r3,19
    1104:	00824034 	movhi	r2,2304
    1108:	10800804 	addi	r2,r2,32
    110c:	10c00035 	stwio	r3,0(r2)
    IOWR(CY7C67200_BASE,HPI_DATA,0x0520);//e
    1110:	00c14804 	movi	r3,1312
    1114:	00824034 	movhi	r2,2304
    1118:	10800804 	addi	r2,r2,32
    111c:	10c00035 	stwio	r3,0(r2)
    
    //data phase IN-2
    IOWR(CY7C67200_BASE,HPI_DATA,0x054c); //520
    1120:	00c15304 	movi	r3,1356
    1124:	00824034 	movhi	r2,2304
    1128:	10800804 	addi	r2,r2,32
    112c:	10c00035 	stwio	r3,0(r2)
    IOWR(CY7C67200_BASE,HPI_DATA,0x0008);//2
    1130:	00c00204 	movi	r3,8
    1134:	00824034 	movhi	r2,2304
    1138:	10800804 	addi	r2,r2,32
    113c:	10c00035 	stwio	r3,0(r2)
    IOWR(CY7C67200_BASE,HPI_DATA,0x0290);//4
    1140:	00c0a404 	movi	r3,656
    1144:	00824034 	movhi	r2,2304
    1148:	10800804 	addi	r2,r2,32
    114c:	10c00035 	stwio	r3,0(r2)
    IOWR(CY7C67200_BASE,HPI_DATA,0x0001);//6
    1150:	00c00044 	movi	r3,1
    1154:	00824034 	movhi	r2,2304
    1158:	10800804 	addi	r2,r2,32
    115c:	10c00035 	stwio	r3,0(r2)
    IOWR(CY7C67200_BASE,HPI_DATA,0x0013);//8
    1160:	00c004c4 	movi	r3,19
    1164:	00824034 	movhi	r2,2304
    1168:	10800804 	addi	r2,r2,32
    116c:	10c00035 	stwio	r3,0(r2)
    IOWR(CY7C67200_BASE,HPI_DATA,0x052c);//a
    1170:	00c14b04 	movi	r3,1324
    1174:	00824034 	movhi	r2,2304
    1178:	10800804 	addi	r2,r2,32
    117c:	10c00035 	stwio	r3,0(r2)
    
    //data phase IN-3
    IOWR(CY7C67200_BASE,HPI_DATA,0x0554); //c
    1180:	00c15504 	movi	r3,1364
    1184:	00824034 	movhi	r2,2304
    1188:	10800804 	addi	r2,r2,32
    118c:	10c00035 	stwio	r3,0(r2)
    IOWR(CY7C67200_BASE,HPI_DATA,0x0002);//e
    1190:	00c00084 	movi	r3,2
    1194:	00824034 	movhi	r2,2304
    1198:	10800804 	addi	r2,r2,32
    119c:	10c00035 	stwio	r3,0(r2)
    IOWR(CY7C67200_BASE,HPI_DATA,0x0290);//530
    11a0:	00c0a404 	movi	r3,656
    11a4:	00824034 	movhi	r2,2304
    11a8:	10800804 	addi	r2,r2,32
    11ac:	10c00035 	stwio	r3,0(r2)
    IOWR(CY7C67200_BASE,HPI_DATA,0x0041);//2
    11b0:	00c01044 	movi	r3,65
    11b4:	00824034 	movhi	r2,2304
    11b8:	10800804 	addi	r2,r2,32
    11bc:	10c00035 	stwio	r3,0(r2)
    IOWR(CY7C67200_BASE,HPI_DATA,0x0013);//4
    11c0:	00c004c4 	movi	r3,19
    11c4:	00824034 	movhi	r2,2304
    11c8:	10800804 	addi	r2,r2,32
    11cc:	10c00035 	stwio	r3,0(r2)
    IOWR(CY7C67200_BASE,HPI_DATA,0x0538);//6
    11d0:	00c14e04 	movi	r3,1336
    11d4:	00824034 	movhi	r2,2304
    11d8:	10800804 	addi	r2,r2,32
    11dc:	10c00035 	stwio	r3,0(r2)
    
    //status phase
    IOWR(CY7C67200_BASE,HPI_DATA,0x0000); //538
    11e0:	0007883a 	mov	r3,zero
    11e4:	00824034 	movhi	r2,2304
    11e8:	10800804 	addi	r2,r2,32
    11ec:	10c00035 	stwio	r3,0(r2)
    IOWR(CY7C67200_BASE,HPI_DATA,0x0000);//a
    11f0:	0007883a 	mov	r3,zero
    11f4:	00824034 	movhi	r2,2304
    11f8:	10800804 	addi	r2,r2,32
    11fc:	10c00035 	stwio	r3,0(r2)
    IOWR(CY7C67200_BASE,HPI_DATA,0x0210);//c
    1200:	00c08404 	movi	r3,528
    1204:	00824034 	movhi	r2,2304
    1208:	10800804 	addi	r2,r2,32
    120c:	10c00035 	stwio	r3,0(r2)
    IOWR(CY7C67200_BASE,HPI_DATA,0x0041);//e
    1210:	00c01044 	movi	r3,65
    1214:	00824034 	movhi	r2,2304
    1218:	10800804 	addi	r2,r2,32
    121c:	10c00035 	stwio	r3,0(r2)
    IOWR(CY7C67200_BASE,HPI_DATA,0x0013);//540
    1220:	00c004c4 	movi	r3,19
    1224:	00824034 	movhi	r2,2304
    1228:	10800804 	addi	r2,r2,32
    122c:	10c00035 	stwio	r3,0(r2)
    IOWR(CY7C67200_BASE,HPI_DATA,0x0000);//2
    1230:	0007883a 	mov	r3,zero
    1234:	00824034 	movhi	r2,2304
    1238:	10800804 	addi	r2,r2,32
    123c:	10c00035 	stwio	r3,0(r2)
    
     
    UsbWrite(HUSB_SIE1_pCurrentTDPtr,0x0500); //HUSB_SIE1_pCurrentTDPtr
    1240:	01006c04 	movi	r4,432
    1244:	01414004 	movi	r5,1280
    1248:	0003be80 	call	3be8 <UsbWrite>
    usleep(10*1000);
    124c:	0109c404 	movi	r4,10000
    1250:	00108ec0 	call	108ec <usleep>
     
    UsbWrite(HUSB_SIE1_pCurrentTDPtr,0x0500); //HUSB_SIE1_pCurrentTDPtr
    
    //usleep(100*1000);
    //if no message
    while (!(IORD(CY7C67200_BASE,HPI_STATUS) & HPI_STATUS_SIE1msg_FLAG) )  //read sie1 msg register
    1254:	00824034 	movhi	r2,2304
    1258:	10800b04 	addi	r2,r2,44
    125c:	10800037 	ldwio	r2,0(r2)
    1260:	1080040c 	andi	r2,r2,16
    1264:	103f6a26 	beq	r2,zero,1010 <__alt_mem_sram+0xf7e01010>
    UsbWrite(HUSB_SIE1_pCurrentTDPtr,0x0500); //HUSB_SIE1_pCurrentTDPtr
    usleep(10*1000);
    }
    
    //UsbRead(0x01B8);
    usb_ctl_val = UsbRead(HPI_SIE1_MSG_ADR);
    1268:	01005104 	movi	r4,324
    126c:	0003c340 	call	3c34 <UsbRead>
    1270:	e0bff80d 	sth	r2,-32(fp)
    UsbWrite(HPI_SIE1_MSG_ADR, 0);
    1274:	01005104 	movi	r4,324
    1278:	000b883a 	mov	r5,zero
    127c:	0003be80 	call	3be8 <UsbWrite>
    while (usb_ctl_val != 0x1000)  //read sie1 msg register
    1280:	00000d06 	br	12b8 <main+0x105c>
    {
       if(usb_ctl_val == 0x000)
    1284:	e0bff80b 	ldhu	r2,-32(fp)
    1288:	10000526 	beq	r2,zero,12a0 <main+0x1044>
       {
       }
       else
       {
        printf("[SIE1 MSG]:SIE1 msg reg is %x\n",usb_ctl_val);
    128c:	e0bff80b 	ldhu	r2,-32(fp)
    1290:	01000074 	movhi	r4,1
    1294:	210aa804 	addi	r4,r4,10912
    1298:	100b883a 	mov	r5,r2
    129c:	0003d5c0 	call	3d5c <printf>
       }
       usb_ctl_val = UsbRead(HPI_SIE1_MSG_ADR);
    12a0:	01005104 	movi	r4,324
    12a4:	0003c340 	call	3c34 <UsbRead>
    12a8:	e0bff80d 	sth	r2,-32(fp)
       UsbWrite(HPI_SIE1_MSG_ADR, 0);
    12ac:	01005104 	movi	r4,324
    12b0:	000b883a 	mov	r5,zero
    12b4:	0003be80 	call	3be8 <UsbWrite>
    }
    
    //UsbRead(0x01B8);
    usb_ctl_val = UsbRead(HPI_SIE1_MSG_ADR);
    UsbWrite(HPI_SIE1_MSG_ADR, 0);
    while (usb_ctl_val != 0x1000)  //read sie1 msg register
    12b8:	e0bff80b 	ldhu	r2,-32(fp)
    12bc:	10840018 	cmpnei	r2,r2,4096
    12c0:	103ff01e 	bne	r2,zero,1284 <__alt_mem_sram+0xf7e01284>
       usb_ctl_val = UsbRead(HPI_SIE1_MSG_ADR);
       UsbWrite(HPI_SIE1_MSG_ADR, 0);
      
    }

    IOWR(CY7C67200_BASE,HPI_ADDR,0x0506);
    12c4:	00c14184 	movi	r3,1286
    12c8:	00824034 	movhi	r2,2304
    12cc:	10800a04 	addi	r2,r2,40
    12d0:	10c00035 	stwio	r3,0(r2)
    printf("[ENUM PROCESS]:step 4 TD Status Byte is %x\n",IORD(CY7C67200_BASE,HPI_DATA));
    12d4:	00824034 	movhi	r2,2304
    12d8:	10800804 	addi	r2,r2,32
    12dc:	10800037 	ldwio	r2,0(r2)
    12e0:	01000074 	movhi	r4,1
    12e4:	210ad604 	addi	r4,r4,11096
    12e8:	100b883a 	mov	r5,r2
    12ec:	0003d5c0 	call	3d5c <printf>
    
    IOWR(CY7C67200_BASE,HPI_ADDR,0x0508);
    12f0:	00c14204 	movi	r3,1288
    12f4:	00824034 	movhi	r2,2304
    12f8:	10800a04 	addi	r2,r2,40
    12fc:	10c00035 	stwio	r3,0(r2)
    usb_ctl_val = IORD(CY7C67200_BASE,HPI_DATA);
    1300:	00824034 	movhi	r2,2304
    1304:	10800804 	addi	r2,r2,32
    1308:	10800037 	ldwio	r2,0(r2)
    130c:	e0bff80d 	sth	r2,-32(fp)
    printf("[ENUM PROCESS]:step 4 TD Control Byte is %x\n",usb_ctl_val);
    1310:	e0bff80b 	ldhu	r2,-32(fp)
    1314:	01000074 	movhi	r4,1
    1318:	210ae104 	addi	r4,r4,11140
    131c:	100b883a 	mov	r5,r2
    1320:	0003d5c0 	call	3d5c <printf>
    while (usb_ctl_val != 0x03) 
    1324:	00001906 	br	138c <main+0x1130>
    {
       IORD(CY7C67200_BASE,HPI_STATUS);
    1328:	00824034 	movhi	r2,2304
    132c:	10800b04 	addi	r2,r2,44
    1330:	10800037 	ldwio	r2,0(r2)
       if(UsbRead(HPI_SIE1_MSG_ADR) == 0x1000)
    1334:	01005104 	movi	r4,324
    1338:	0003c340 	call	3c34 <UsbRead>
    133c:	10bfffcc 	andi	r2,r2,65535
    1340:	10840018 	cmpnei	r2,r2,4096
    1344:	1000091e 	bne	r2,zero,136c <main+0x1110>
       {
           UsbWrite(HPI_SIE1_MSG_ADR, 0);
    1348:	01005104 	movi	r4,324
    134c:	000b883a 	mov	r5,zero
    1350:	0003be80 	call	3be8 <UsbWrite>
                   
           while (!(IORD(CY7C67200_BASE,HPI_STATUS) & HPI_STATUS_SIE1msg_FLAG) )  //read sie1 msg register
    1354:	0001883a 	nop
    1358:	00824034 	movhi	r2,2304
    135c:	10800b04 	addi	r2,r2,44
    1360:	10800037 	ldwio	r2,0(r2)
    1364:	1080040c 	andi	r2,r2,16
    1368:	103ffb26 	beq	r2,zero,1358 <__alt_mem_sram+0xf7e01358>
           {
            
           }
        }
           //usleep(1000);
           IOWR(CY7C67200_BASE,HPI_ADDR,0x0508);
    136c:	00c14204 	movi	r3,1288
    1370:	00824034 	movhi	r2,2304
    1374:	10800a04 	addi	r2,r2,40
    1378:	10c00035 	stwio	r3,0(r2)
           usb_ctl_val = IORD(CY7C67200_BASE,HPI_DATA); 
    137c:	00824034 	movhi	r2,2304
    1380:	10800804 	addi	r2,r2,32
    1384:	10800037 	ldwio	r2,0(r2)
    1388:	e0bff80d 	sth	r2,-32(fp)
    printf("[ENUM PROCESS]:step 4 TD Status Byte is %x\n",IORD(CY7C67200_BASE,HPI_DATA));
    
    IOWR(CY7C67200_BASE,HPI_ADDR,0x0508);
    usb_ctl_val = IORD(CY7C67200_BASE,HPI_DATA);
    printf("[ENUM PROCESS]:step 4 TD Control Byte is %x\n",usb_ctl_val);
    while (usb_ctl_val != 0x03) 
    138c:	e0bff80b 	ldhu	r2,-32(fp)
    1390:	108000d8 	cmpnei	r2,r2,3
    1394:	103fe41e 	bne	r2,zero,1328 <__alt_mem_sram+0xf7e01328>
           //usleep(1000);
           IOWR(CY7C67200_BASE,HPI_ADDR,0x0508);
           usb_ctl_val = IORD(CY7C67200_BASE,HPI_DATA); 
    }    
       
    printf("------------[ENUM PROCESS]:get device descriptor-2 pass!--------------\n");
    1398:	01000074 	movhi	r4,1
    139c:	210b0104 	addi	r4,r4,11268
    13a0:	0003e500 	call	3e50 <puts>
//    printf("\n[ENUM PROCESS]:TD rec data8 is %x\n",IORD(CY7C67200_BASE,HPI_DATA));
    
    //-----------------------------------get configuration descriptor -1 ----------------------------------//
    //usleep(1000);
    //the starting address
    IOWR(CY7C67200_BASE,HPI_ADDR,0x0500); //the start address       
    13a4:	00c14004 	movi	r3,1280
    13a8:	00824034 	movhi	r2,2304
    13ac:	10800a04 	addi	r2,r2,40
    13b0:	10c00035 	stwio	r3,0(r2)
    IOWR(CY7C67200_BASE,HPI_DATA,0x050C); 
    13b4:	00c14304 	movi	r3,1292
    13b8:	00824034 	movhi	r2,2304
    13bc:	10800804 	addi	r2,r2,32
    13c0:	10c00035 	stwio	r3,0(r2)
    IOWR(CY7C67200_BASE,HPI_DATA,0x0008); //4 port number
    13c4:	00c00204 	movi	r3,8
    13c8:	00824034 	movhi	r2,2304
    13cc:	10800804 	addi	r2,r2,32
    13d0:	10c00035 	stwio	r3,0(r2)
    IOWR(CY7C67200_BASE,HPI_DATA,0x02D0); //device address
    13d4:	00c0b404 	movi	r3,720
    13d8:	00824034 	movhi	r2,2304
    13dc:	10800804 	addi	r2,r2,32
    13e0:	10c00035 	stwio	r3,0(r2)
    IOWR(CY7C67200_BASE,HPI_DATA,0x0001);
    13e4:	00c00044 	movi	r3,1
    13e8:	00824034 	movhi	r2,2304
    13ec:	10800804 	addi	r2,r2,32
    13f0:	10c00035 	stwio	r3,0(r2)
    IOWR(CY7C67200_BASE,HPI_DATA,0x0013);
    13f4:	00c004c4 	movi	r3,19
    13f8:	00824034 	movhi	r2,2304
    13fc:	10800804 	addi	r2,r2,32
    1400:	10c00035 	stwio	r3,0(r2)
    IOWR(CY7C67200_BASE,HPI_DATA,0x0514);
    1404:	00c14504 	movi	r3,1300
    1408:	00824034 	movhi	r2,2304
    140c:	10800804 	addi	r2,r2,32
    1410:	10c00035 	stwio	r3,0(r2)
    
    //td content 4 bytes
    IOWR(CY7C67200_BASE,HPI_DATA,0x0680);//c
    1414:	00c1a004 	movi	r3,1664
    1418:	00824034 	movhi	r2,2304
    141c:	10800804 	addi	r2,r2,32
    1420:	10c00035 	stwio	r3,0(r2)
    IOWR(CY7C67200_BASE,HPI_DATA,0x0200);//e
    1424:	00c08004 	movi	r3,512
    1428:	00824034 	movhi	r2,2304
    142c:	10800804 	addi	r2,r2,32
    1430:	10c00035 	stwio	r3,0(r2)
    IOWR(CY7C67200_BASE,HPI_DATA,0x0000);//0
    1434:	0007883a 	mov	r3,zero
    1438:	00824034 	movhi	r2,2304
    143c:	10800804 	addi	r2,r2,32
    1440:	10c00035 	stwio	r3,0(r2)
    IOWR(CY7C67200_BASE,HPI_DATA,0x0009);//2
    1444:	00c00244 	movi	r3,9
    1448:	00824034 	movhi	r2,2304
    144c:	10800804 	addi	r2,r2,32
    1450:	10c00035 	stwio	r3,0(r2)
    
    //data phase IN-1
    IOWR(CY7C67200_BASE,HPI_DATA,0x0544); //514
    1454:	00c15104 	movi	r3,1348
    1458:	00824034 	movhi	r2,2304
    145c:	10800804 	addi	r2,r2,32
    1460:	10c00035 	stwio	r3,0(r2)
    IOWR(CY7C67200_BASE,HPI_DATA,0x0008);//6
    1464:	00c00204 	movi	r3,8
    1468:	00824034 	movhi	r2,2304
    146c:	10800804 	addi	r2,r2,32
    1470:	10c00035 	stwio	r3,0(r2)
    IOWR(CY7C67200_BASE,HPI_DATA,0x0290);//8
    1474:	00c0a404 	movi	r3,656
    1478:	00824034 	movhi	r2,2304
    147c:	10800804 	addi	r2,r2,32
    1480:	10c00035 	stwio	r3,0(r2)
    IOWR(CY7C67200_BASE,HPI_DATA,0x0041);//a
    1484:	00c01044 	movi	r3,65
    1488:	00824034 	movhi	r2,2304
    148c:	10800804 	addi	r2,r2,32
    1490:	10c00035 	stwio	r3,0(r2)
    IOWR(CY7C67200_BASE,HPI_DATA,0x0013);//c
    1494:	00c004c4 	movi	r3,19
    1498:	00824034 	movhi	r2,2304
    149c:	10800804 	addi	r2,r2,32
    14a0:	10c00035 	stwio	r3,0(r2)
    IOWR(CY7C67200_BASE,HPI_DATA,0x0520);//e
    14a4:	00c14804 	movi	r3,1312
    14a8:	00824034 	movhi	r2,2304
    14ac:	10800804 	addi	r2,r2,32
    14b0:	10c00035 	stwio	r3,0(r2)
    
    //data phase IN-2
    IOWR(CY7C67200_BASE,HPI_DATA,0x054c); //520
    14b4:	00c15304 	movi	r3,1356
    14b8:	00824034 	movhi	r2,2304
    14bc:	10800804 	addi	r2,r2,32
    14c0:	10c00035 	stwio	r3,0(r2)
    IOWR(CY7C67200_BASE,HPI_DATA,0x0001);//2
    14c4:	00c00044 	movi	r3,1
    14c8:	00824034 	movhi	r2,2304
    14cc:	10800804 	addi	r2,r2,32
    14d0:	10c00035 	stwio	r3,0(r2)
    IOWR(CY7C67200_BASE,HPI_DATA,0x0290);//4
    14d4:	00c0a404 	movi	r3,656
    14d8:	00824034 	movhi	r2,2304
    14dc:	10800804 	addi	r2,r2,32
    14e0:	10c00035 	stwio	r3,0(r2)
    IOWR(CY7C67200_BASE,HPI_DATA,0x0001);//6 //data0
    14e4:	00c00044 	movi	r3,1
    14e8:	00824034 	movhi	r2,2304
    14ec:	10800804 	addi	r2,r2,32
    14f0:	10c00035 	stwio	r3,0(r2)
    IOWR(CY7C67200_BASE,HPI_DATA,0x0013);//8
    14f4:	00c004c4 	movi	r3,19
    14f8:	00824034 	movhi	r2,2304
    14fc:	10800804 	addi	r2,r2,32
    1500:	10c00035 	stwio	r3,0(r2)
    IOWR(CY7C67200_BASE,HPI_DATA,0x052c);//a
    1504:	00c14b04 	movi	r3,1324
    1508:	00824034 	movhi	r2,2304
    150c:	10800804 	addi	r2,r2,32
    1510:	10c00035 	stwio	r3,0(r2)
    
    //status phase
    IOWR(CY7C67200_BASE,HPI_DATA,0x0000); //52c
    1514:	0007883a 	mov	r3,zero
    1518:	00824034 	movhi	r2,2304
    151c:	10800804 	addi	r2,r2,32
    1520:	10c00035 	stwio	r3,0(r2)
    IOWR(CY7C67200_BASE,HPI_DATA,0x0000);//e
    1524:	0007883a 	mov	r3,zero
    1528:	00824034 	movhi	r2,2304
    152c:	10800804 	addi	r2,r2,32
    1530:	10c00035 	stwio	r3,0(r2)
    IOWR(CY7C67200_BASE,HPI_DATA,0x0210);//530
    1534:	00c08404 	movi	r3,528
    1538:	00824034 	movhi	r2,2304
    153c:	10800804 	addi	r2,r2,32
    1540:	10c00035 	stwio	r3,0(r2)
    IOWR(CY7C67200_BASE,HPI_DATA,0x0041);//2
    1544:	00c01044 	movi	r3,65
    1548:	00824034 	movhi	r2,2304
    154c:	10800804 	addi	r2,r2,32
    1550:	10c00035 	stwio	r3,0(r2)
    IOWR(CY7C67200_BASE,HPI_DATA,0x0013);//4
    1554:	00c004c4 	movi	r3,19
    1558:	00824034 	movhi	r2,2304
    155c:	10800804 	addi	r2,r2,32
    1560:	10c00035 	stwio	r3,0(r2)
    IOWR(CY7C67200_BASE,HPI_DATA,0x0000);//6
    1564:	0007883a 	mov	r3,zero
    1568:	00824034 	movhi	r2,2304
    156c:	10800804 	addi	r2,r2,32
    1570:	10c00035 	stwio	r3,0(r2)
     
    UsbWrite(HUSB_SIE1_pCurrentTDPtr,0x0500); //HUSB_SIE1_pCurrentTDPtr
    1574:	01006c04 	movi	r4,432
    1578:	01414004 	movi	r5,1280
    157c:	0003be80 	call	3be8 <UsbWrite>
    
   //usleep(10*1000);
   //if no message
    while (!(IORD(CY7C67200_BASE,HPI_STATUS) & HPI_STATUS_SIE1msg_FLAG) )  //read sie1 msg register
    1580:	00007906 	br	1768 <main+0x150c>
    {
        //resend the get device descriptor
        //get device descriptor

    //the starting address
    IOWR(CY7C67200_BASE,HPI_ADDR,0x0500); //the start address       
    1584:	00c14004 	movi	r3,1280
    1588:	00824034 	movhi	r2,2304
    158c:	10800a04 	addi	r2,r2,40
    1590:	10c00035 	stwio	r3,0(r2)
    IOWR(CY7C67200_BASE,HPI_DATA,0x050C); 
    1594:	00c14304 	movi	r3,1292
    1598:	00824034 	movhi	r2,2304
    159c:	10800804 	addi	r2,r2,32
    15a0:	10c00035 	stwio	r3,0(r2)
    IOWR(CY7C67200_BASE,HPI_DATA,0x0008); //4 port number
    15a4:	00c00204 	movi	r3,8
    15a8:	00824034 	movhi	r2,2304
    15ac:	10800804 	addi	r2,r2,32
    15b0:	10c00035 	stwio	r3,0(r2)
    IOWR(CY7C67200_BASE,HPI_DATA,0x02D0); //device address
    15b4:	00c0b404 	movi	r3,720
    15b8:	00824034 	movhi	r2,2304
    15bc:	10800804 	addi	r2,r2,32
    15c0:	10c00035 	stwio	r3,0(r2)
    IOWR(CY7C67200_BASE,HPI_DATA,0x0001);
    15c4:	00c00044 	movi	r3,1
    15c8:	00824034 	movhi	r2,2304
    15cc:	10800804 	addi	r2,r2,32
    15d0:	10c00035 	stwio	r3,0(r2)
    IOWR(CY7C67200_BASE,HPI_DATA,0x0013);
    15d4:	00c004c4 	movi	r3,19
    15d8:	00824034 	movhi	r2,2304
    15dc:	10800804 	addi	r2,r2,32
    15e0:	10c00035 	stwio	r3,0(r2)
    IOWR(CY7C67200_BASE,HPI_DATA,0x0514);
    15e4:	00c14504 	movi	r3,1300
    15e8:	00824034 	movhi	r2,2304
    15ec:	10800804 	addi	r2,r2,32
    15f0:	10c00035 	stwio	r3,0(r2)
    
    //td content 4 bytes
    IOWR(CY7C67200_BASE,HPI_DATA,0x0680);//c
    15f4:	00c1a004 	movi	r3,1664
    15f8:	00824034 	movhi	r2,2304
    15fc:	10800804 	addi	r2,r2,32
    1600:	10c00035 	stwio	r3,0(r2)
    IOWR(CY7C67200_BASE,HPI_DATA,0x0200);//e
    1604:	00c08004 	movi	r3,512
    1608:	00824034 	movhi	r2,2304
    160c:	10800804 	addi	r2,r2,32
    1610:	10c00035 	stwio	r3,0(r2)
    IOWR(CY7C67200_BASE,HPI_DATA,0x0000);//0
    1614:	0007883a 	mov	r3,zero
    1618:	00824034 	movhi	r2,2304
    161c:	10800804 	addi	r2,r2,32
    1620:	10c00035 	stwio	r3,0(r2)
    IOWR(CY7C67200_BASE,HPI_DATA,0x0009);//2
    1624:	00c00244 	movi	r3,9
    1628:	00824034 	movhi	r2,2304
    162c:	10800804 	addi	r2,r2,32
    1630:	10c00035 	stwio	r3,0(r2)
    
    //data phase IN-1
    IOWR(CY7C67200_BASE,HPI_DATA,0x0544); //514
    1634:	00c15104 	movi	r3,1348
    1638:	00824034 	movhi	r2,2304
    163c:	10800804 	addi	r2,r2,32
    1640:	10c00035 	stwio	r3,0(r2)
    IOWR(CY7C67200_BASE,HPI_DATA,0x0008);//6
    1644:	00c00204 	movi	r3,8
    1648:	00824034 	movhi	r2,2304
    164c:	10800804 	addi	r2,r2,32
    1650:	10c00035 	stwio	r3,0(r2)
    IOWR(CY7C67200_BASE,HPI_DATA,0x0290);//8
    1654:	00c0a404 	movi	r3,656
    1658:	00824034 	movhi	r2,2304
    165c:	10800804 	addi	r2,r2,32
    1660:	10c00035 	stwio	r3,0(r2)
    IOWR(CY7C67200_BASE,HPI_DATA,0x0041);//a
    1664:	00c01044 	movi	r3,65
    1668:	00824034 	movhi	r2,2304
    166c:	10800804 	addi	r2,r2,32
    1670:	10c00035 	stwio	r3,0(r2)
    IOWR(CY7C67200_BASE,HPI_DATA,0x0013);//c
    1674:	00c004c4 	movi	r3,19
    1678:	00824034 	movhi	r2,2304
    167c:	10800804 	addi	r2,r2,32
    1680:	10c00035 	stwio	r3,0(r2)
    IOWR(CY7C67200_BASE,HPI_DATA,0x0520);//e
    1684:	00c14804 	movi	r3,1312
    1688:	00824034 	movhi	r2,2304
    168c:	10800804 	addi	r2,r2,32
    1690:	10c00035 	stwio	r3,0(r2)
    
    //data phase IN-2
    IOWR(CY7C67200_BASE,HPI_DATA,0x054c); //520
    1694:	00c15304 	movi	r3,1356
    1698:	00824034 	movhi	r2,2304
    169c:	10800804 	addi	r2,r2,32
    16a0:	10c00035 	stwio	r3,0(r2)
    IOWR(CY7C67200_BASE,HPI_DATA,0x0001);//2
    16a4:	00c00044 	movi	r3,1
    16a8:	00824034 	movhi	r2,2304
    16ac:	10800804 	addi	r2,r2,32
    16b0:	10c00035 	stwio	r3,0(r2)
    IOWR(CY7C67200_BASE,HPI_DATA,0x0290);//4
    16b4:	00c0a404 	movi	r3,656
    16b8:	00824034 	movhi	r2,2304
    16bc:	10800804 	addi	r2,r2,32
    16c0:	10c00035 	stwio	r3,0(r2)
    IOWR(CY7C67200_BASE,HPI_DATA,0x0001);//6 //data0
    16c4:	00c00044 	movi	r3,1
    16c8:	00824034 	movhi	r2,2304
    16cc:	10800804 	addi	r2,r2,32
    16d0:	10c00035 	stwio	r3,0(r2)
    IOWR(CY7C67200_BASE,HPI_DATA,0x0013);//8
    16d4:	00c004c4 	movi	r3,19
    16d8:	00824034 	movhi	r2,2304
    16dc:	10800804 	addi	r2,r2,32
    16e0:	10c00035 	stwio	r3,0(r2)
    IOWR(CY7C67200_BASE,HPI_DATA,0x052c);//a
    16e4:	00c14b04 	movi	r3,1324
    16e8:	00824034 	movhi	r2,2304
    16ec:	10800804 	addi	r2,r2,32
    16f0:	10c00035 	stwio	r3,0(r2)
    
    //status phase
    IOWR(CY7C67200_BASE,HPI_DATA,0x0000); //52c
    16f4:	0007883a 	mov	r3,zero
    16f8:	00824034 	movhi	r2,2304
    16fc:	10800804 	addi	r2,r2,32
    1700:	10c00035 	stwio	r3,0(r2)
    IOWR(CY7C67200_BASE,HPI_DATA,0x0000);//e
    1704:	0007883a 	mov	r3,zero
    1708:	00824034 	movhi	r2,2304
    170c:	10800804 	addi	r2,r2,32
    1710:	10c00035 	stwio	r3,0(r2)
    IOWR(CY7C67200_BASE,HPI_DATA,0x0210);//530
    1714:	00c08404 	movi	r3,528
    1718:	00824034 	movhi	r2,2304
    171c:	10800804 	addi	r2,r2,32
    1720:	10c00035 	stwio	r3,0(r2)
    IOWR(CY7C67200_BASE,HPI_DATA,0x0041);//2
    1724:	00c01044 	movi	r3,65
    1728:	00824034 	movhi	r2,2304
    172c:	10800804 	addi	r2,r2,32
    1730:	10c00035 	stwio	r3,0(r2)
    IOWR(CY7C67200_BASE,HPI_DATA,0x0013);//4
    1734:	00c004c4 	movi	r3,19
    1738:	00824034 	movhi	r2,2304
    173c:	10800804 	addi	r2,r2,32
    1740:	10c00035 	stwio	r3,0(r2)
    IOWR(CY7C67200_BASE,HPI_DATA,0x0000);//6
    1744:	0007883a 	mov	r3,zero
    1748:	00824034 	movhi	r2,2304
    174c:	10800804 	addi	r2,r2,32
    1750:	10c00035 	stwio	r3,0(r2)
     
    UsbWrite(HUSB_SIE1_pCurrentTDPtr,0x0500); //HUSB_SIE1_pCurrentTDPtr
    1754:	01006c04 	movi	r4,432
    1758:	01414004 	movi	r5,1280
    175c:	0003be80 	call	3be8 <UsbWrite>
    usleep(10*1000);
    1760:	0109c404 	movi	r4,10000
    1764:	00108ec0 	call	108ec <usleep>
     
    UsbWrite(HUSB_SIE1_pCurrentTDPtr,0x0500); //HUSB_SIE1_pCurrentTDPtr
    
   //usleep(10*1000);
   //if no message
    while (!(IORD(CY7C67200_BASE,HPI_STATUS) & HPI_STATUS_SIE1msg_FLAG) )  //read sie1 msg register
    1768:	00824034 	movhi	r2,2304
    176c:	10800b04 	addi	r2,r2,44
    1770:	10800037 	ldwio	r2,0(r2)
    1774:	1080040c 	andi	r2,r2,16
    1778:	103f8226 	beq	r2,zero,1584 <__alt_mem_sram+0xf7e01584>
     
    UsbWrite(HUSB_SIE1_pCurrentTDPtr,0x0500); //HUSB_SIE1_pCurrentTDPtr
    usleep(10*1000);
    }
    
    usb_ctl_val = UsbRead(HPI_SIE1_MSG_ADR);
    177c:	01005104 	movi	r4,324
    1780:	0003c340 	call	3c34 <UsbRead>
    1784:	e0bff80d 	sth	r2,-32(fp)
    UsbWrite(HPI_SIE1_MSG_ADR, 0);
    1788:	01005104 	movi	r4,324
    178c:	000b883a 	mov	r5,zero
    1790:	0003be80 	call	3be8 <UsbWrite>
    while (usb_ctl_val != 0x1000)  //read sie1 msg register
    1794:	00000d06 	br	17cc <main+0x1570>
    {
       if(usb_ctl_val == 0x000)
    1798:	e0bff80b 	ldhu	r2,-32(fp)
    179c:	10000526 	beq	r2,zero,17b4 <main+0x1558>
       {
       }
       else
       {
        printf("[SIE1 MSG]:SIE1 msg reg is %x\n",usb_ctl_val);
    17a0:	e0bff80b 	ldhu	r2,-32(fp)
    17a4:	01000074 	movhi	r4,1
    17a8:	210aa804 	addi	r4,r4,10912
    17ac:	100b883a 	mov	r5,r2
    17b0:	0003d5c0 	call	3d5c <printf>
       }
       usb_ctl_val = UsbRead(HPI_SIE1_MSG_ADR);
    17b4:	01005104 	movi	r4,324
    17b8:	0003c340 	call	3c34 <UsbRead>
    17bc:	e0bff80d 	sth	r2,-32(fp)
       UsbWrite(HPI_SIE1_MSG_ADR, 0);
    17c0:	01005104 	movi	r4,324
    17c4:	000b883a 	mov	r5,zero
    17c8:	0003be80 	call	3be8 <UsbWrite>
    usleep(10*1000);
    }
    
    usb_ctl_val = UsbRead(HPI_SIE1_MSG_ADR);
    UsbWrite(HPI_SIE1_MSG_ADR, 0);
    while (usb_ctl_val != 0x1000)  //read sie1 msg register
    17cc:	e0bff80b 	ldhu	r2,-32(fp)
    17d0:	10840018 	cmpnei	r2,r2,4096
    17d4:	103ff01e 	bne	r2,zero,1798 <__alt_mem_sram+0xf7e01798>
       usb_ctl_val = UsbRead(HPI_SIE1_MSG_ADR);
       UsbWrite(HPI_SIE1_MSG_ADR, 0);
      
    }

    IOWR(CY7C67200_BASE,HPI_ADDR,0x0506);
    17d8:	00c14184 	movi	r3,1286
    17dc:	00824034 	movhi	r2,2304
    17e0:	10800a04 	addi	r2,r2,40
    17e4:	10c00035 	stwio	r3,0(r2)
    printf("[ENUM PROCESS]:step 5 TD Status Byte is %x\n",IORD(CY7C67200_BASE,HPI_DATA));
    17e8:	00824034 	movhi	r2,2304
    17ec:	10800804 	addi	r2,r2,32
    17f0:	10800037 	ldwio	r2,0(r2)
    17f4:	01000074 	movhi	r4,1
    17f8:	210b1304 	addi	r4,r4,11340
    17fc:	100b883a 	mov	r5,r2
    1800:	0003d5c0 	call	3d5c <printf>
    
    IOWR(CY7C67200_BASE,HPI_ADDR,0x0508);
    1804:	00c14204 	movi	r3,1288
    1808:	00824034 	movhi	r2,2304
    180c:	10800a04 	addi	r2,r2,40
    1810:	10c00035 	stwio	r3,0(r2)
    usb_ctl_val = IORD(CY7C67200_BASE,HPI_DATA);
    1814:	00824034 	movhi	r2,2304
    1818:	10800804 	addi	r2,r2,32
    181c:	10800037 	ldwio	r2,0(r2)
    1820:	e0bff80d 	sth	r2,-32(fp)
    printf("[ENUM PROCESS]:step 5 TD Control Byte is %x\n",usb_ctl_val);
    1824:	e0bff80b 	ldhu	r2,-32(fp)
    1828:	01000074 	movhi	r4,1
    182c:	210b1e04 	addi	r4,r4,11384
    1830:	100b883a 	mov	r5,r2
    1834:	0003d5c0 	call	3d5c <printf>
    while (usb_ctl_val != 0x03) 
    1838:	00001906 	br	18a0 <main+0x1644>
    {
       IORD(CY7C67200_BASE,HPI_STATUS);
    183c:	00824034 	movhi	r2,2304
    1840:	10800b04 	addi	r2,r2,44
    1844:	10800037 	ldwio	r2,0(r2)
       if(UsbRead(HPI_SIE1_MSG_ADR) == 0x1000)
    1848:	01005104 	movi	r4,324
    184c:	0003c340 	call	3c34 <UsbRead>
    1850:	10bfffcc 	andi	r2,r2,65535
    1854:	10840018 	cmpnei	r2,r2,4096
    1858:	1000091e 	bne	r2,zero,1880 <main+0x1624>
       {
           UsbWrite(HPI_SIE1_MSG_ADR, 0);
    185c:	01005104 	movi	r4,324
    1860:	000b883a 	mov	r5,zero
    1864:	0003be80 	call	3be8 <UsbWrite>
                   
           while (!(IORD(CY7C67200_BASE,HPI_STATUS) & HPI_STATUS_SIE1msg_FLAG) )  //read sie1 msg register
    1868:	0001883a 	nop
    186c:	00824034 	movhi	r2,2304
    1870:	10800b04 	addi	r2,r2,44
    1874:	10800037 	ldwio	r2,0(r2)
    1878:	1080040c 	andi	r2,r2,16
    187c:	103ffb26 	beq	r2,zero,186c <__alt_mem_sram+0xf7e0186c>
           {
            
           }
        }
           //usleep(1000);
           IOWR(CY7C67200_BASE,HPI_ADDR,0x0508);
    1880:	00c14204 	movi	r3,1288
    1884:	00824034 	movhi	r2,2304
    1888:	10800a04 	addi	r2,r2,40
    188c:	10c00035 	stwio	r3,0(r2)
           usb_ctl_val = IORD(CY7C67200_BASE,HPI_DATA); 
    1890:	00824034 	movhi	r2,2304
    1894:	10800804 	addi	r2,r2,32
    1898:	10800037 	ldwio	r2,0(r2)
    189c:	e0bff80d 	sth	r2,-32(fp)
    printf("[ENUM PROCESS]:step 5 TD Status Byte is %x\n",IORD(CY7C67200_BASE,HPI_DATA));
    
    IOWR(CY7C67200_BASE,HPI_ADDR,0x0508);
    usb_ctl_val = IORD(CY7C67200_BASE,HPI_DATA);
    printf("[ENUM PROCESS]:step 5 TD Control Byte is %x\n",usb_ctl_val);
    while (usb_ctl_val != 0x03) 
    18a0:	e0bff80b 	ldhu	r2,-32(fp)
    18a4:	108000d8 	cmpnei	r2,r2,3
    18a8:	103fe41e 	bne	r2,zero,183c <__alt_mem_sram+0xf7e0183c>
        }
           //usleep(1000);
           IOWR(CY7C67200_BASE,HPI_ADDR,0x0508);
           usb_ctl_val = IORD(CY7C67200_BASE,HPI_DATA); 
    }    
    printf("------------[ENUM PROCESS]:get configuration descriptor-1 pass------------\n");
    18ac:	01000074 	movhi	r4,1
    18b0:	210b2a04 	addi	r4,r4,11432
    18b4:	0003e500 	call	3e50 <puts>
    
    //-----------------------------------get configuration descriptor-2------------------------------------//
    //get device descriptor
    //the starting address
    IOWR(CY7C67200_BASE,HPI_ADDR,0x0500); //the start address       
    18b8:	00c14004 	movi	r3,1280
    18bc:	00824034 	movhi	r2,2304
    18c0:	10800a04 	addi	r2,r2,40
    18c4:	10c00035 	stwio	r3,0(r2)
    IOWR(CY7C67200_BASE,HPI_DATA,0x050C); 
    18c8:	00c14304 	movi	r3,1292
    18cc:	00824034 	movhi	r2,2304
    18d0:	10800804 	addi	r2,r2,32
    18d4:	10c00035 	stwio	r3,0(r2)
    IOWR(CY7C67200_BASE,HPI_DATA,0x0008); //4 port number
    18d8:	00c00204 	movi	r3,8
    18dc:	00824034 	movhi	r2,2304
    18e0:	10800804 	addi	r2,r2,32
    18e4:	10c00035 	stwio	r3,0(r2)
    IOWR(CY7C67200_BASE,HPI_DATA,0x02D0); //device address
    18e8:	00c0b404 	movi	r3,720
    18ec:	00824034 	movhi	r2,2304
    18f0:	10800804 	addi	r2,r2,32
    18f4:	10c00035 	stwio	r3,0(r2)
    IOWR(CY7C67200_BASE,HPI_DATA,0x0001);
    18f8:	00c00044 	movi	r3,1
    18fc:	00824034 	movhi	r2,2304
    1900:	10800804 	addi	r2,r2,32
    1904:	10c00035 	stwio	r3,0(r2)
    IOWR(CY7C67200_BASE,HPI_DATA,0x0013);
    1908:	00c004c4 	movi	r3,19
    190c:	00824034 	movhi	r2,2304
    1910:	10800804 	addi	r2,r2,32
    1914:	10c00035 	stwio	r3,0(r2)
    IOWR(CY7C67200_BASE,HPI_DATA,0x0514);
    1918:	00c14504 	movi	r3,1300
    191c:	00824034 	movhi	r2,2304
    1920:	10800804 	addi	r2,r2,32
    1924:	10c00035 	stwio	r3,0(r2)
    
    //td content 4 bytes
    IOWR(CY7C67200_BASE,HPI_DATA,0x0680);//c
    1928:	00c1a004 	movi	r3,1664
    192c:	00824034 	movhi	r2,2304
    1930:	10800804 	addi	r2,r2,32
    1934:	10c00035 	stwio	r3,0(r2)
    IOWR(CY7C67200_BASE,HPI_DATA,0x0200);//e //config 
    1938:	00c08004 	movi	r3,512
    193c:	00824034 	movhi	r2,2304
    1940:	10800804 	addi	r2,r2,32
    1944:	10c00035 	stwio	r3,0(r2)
    IOWR(CY7C67200_BASE,HPI_DATA,0x0000);//0
    1948:	0007883a 	mov	r3,zero
    194c:	00824034 	movhi	r2,2304
    1950:	10800804 	addi	r2,r2,32
    1954:	10c00035 	stwio	r3,0(r2)
    IOWR(CY7C67200_BASE,HPI_DATA,0x00FF);//2
    1958:	00c03fc4 	movi	r3,255
    195c:	00824034 	movhi	r2,2304
    1960:	10800804 	addi	r2,r2,32
    1964:	10c00035 	stwio	r3,0(r2)
    
    //data phase IN-1
    IOWR(CY7C67200_BASE,HPI_DATA,0x055c); //514
    1968:	00c15704 	movi	r3,1372
    196c:	00824034 	movhi	r2,2304
    1970:	10800804 	addi	r2,r2,32
    1974:	10c00035 	stwio	r3,0(r2)
    IOWR(CY7C67200_BASE,HPI_DATA,0x0008);//6
    1978:	00c00204 	movi	r3,8
    197c:	00824034 	movhi	r2,2304
    1980:	10800804 	addi	r2,r2,32
    1984:	10c00035 	stwio	r3,0(r2)
    IOWR(CY7C67200_BASE,HPI_DATA,0x0290);//8
    1988:	00c0a404 	movi	r3,656
    198c:	00824034 	movhi	r2,2304
    1990:	10800804 	addi	r2,r2,32
    1994:	10c00035 	stwio	r3,0(r2)
    IOWR(CY7C67200_BASE,HPI_DATA,0x0041);//a
    1998:	00c01044 	movi	r3,65
    199c:	00824034 	movhi	r2,2304
    19a0:	10800804 	addi	r2,r2,32
    19a4:	10c00035 	stwio	r3,0(r2)
    IOWR(CY7C67200_BASE,HPI_DATA,0x0013);//c
    19a8:	00c004c4 	movi	r3,19
    19ac:	00824034 	movhi	r2,2304
    19b0:	10800804 	addi	r2,r2,32
    19b4:	10c00035 	stwio	r3,0(r2)
    IOWR(CY7C67200_BASE,HPI_DATA,0x0520);//e
    19b8:	00c14804 	movi	r3,1312
    19bc:	00824034 	movhi	r2,2304
    19c0:	10800804 	addi	r2,r2,32
    19c4:	10c00035 	stwio	r3,0(r2)
    
    //data phase IN-2
    IOWR(CY7C67200_BASE,HPI_DATA,0x0564); //520
    19c8:	00c15904 	movi	r3,1380
    19cc:	00824034 	movhi	r2,2304
    19d0:	10800804 	addi	r2,r2,32
    19d4:	10c00035 	stwio	r3,0(r2)
    IOWR(CY7C67200_BASE,HPI_DATA,0x0008);//2
    19d8:	00c00204 	movi	r3,8
    19dc:	00824034 	movhi	r2,2304
    19e0:	10800804 	addi	r2,r2,32
    19e4:	10c00035 	stwio	r3,0(r2)
    IOWR(CY7C67200_BASE,HPI_DATA,0x0290);//4
    19e8:	00c0a404 	movi	r3,656
    19ec:	00824034 	movhi	r2,2304
    19f0:	10800804 	addi	r2,r2,32
    19f4:	10c00035 	stwio	r3,0(r2)
    IOWR(CY7C67200_BASE,HPI_DATA,0x0001);//6 //data0
    19f8:	00c00044 	movi	r3,1
    19fc:	00824034 	movhi	r2,2304
    1a00:	10800804 	addi	r2,r2,32
    1a04:	10c00035 	stwio	r3,0(r2)
    IOWR(CY7C67200_BASE,HPI_DATA,0x0013);//8
    1a08:	00c004c4 	movi	r3,19
    1a0c:	00824034 	movhi	r2,2304
    1a10:	10800804 	addi	r2,r2,32
    1a14:	10c00035 	stwio	r3,0(r2)
    IOWR(CY7C67200_BASE,HPI_DATA,0x052c);//a
    1a18:	00c14b04 	movi	r3,1324
    1a1c:	00824034 	movhi	r2,2304
    1a20:	10800804 	addi	r2,r2,32
    1a24:	10c00035 	stwio	r3,0(r2)
    
    //data phase IN-3
    IOWR(CY7C67200_BASE,HPI_DATA,0x056c); //52c
    1a28:	00c15b04 	movi	r3,1388
    1a2c:	00824034 	movhi	r2,2304
    1a30:	10800804 	addi	r2,r2,32
    1a34:	10c00035 	stwio	r3,0(r2)
    IOWR(CY7C67200_BASE,HPI_DATA,0x0008);//e
    1a38:	00c00204 	movi	r3,8
    1a3c:	00824034 	movhi	r2,2304
    1a40:	10800804 	addi	r2,r2,32
    1a44:	10c00035 	stwio	r3,0(r2)
    IOWR(CY7C67200_BASE,HPI_DATA,0x0290);//530
    1a48:	00c0a404 	movi	r3,656
    1a4c:	00824034 	movhi	r2,2304
    1a50:	10800804 	addi	r2,r2,32
    1a54:	10c00035 	stwio	r3,0(r2)
    IOWR(CY7C67200_BASE,HPI_DATA,0x0041);//2
    1a58:	00c01044 	movi	r3,65
    1a5c:	00824034 	movhi	r2,2304
    1a60:	10800804 	addi	r2,r2,32
    1a64:	10c00035 	stwio	r3,0(r2)
    IOWR(CY7C67200_BASE,HPI_DATA,0x0013);//4
    1a68:	00c004c4 	movi	r3,19
    1a6c:	00824034 	movhi	r2,2304
    1a70:	10800804 	addi	r2,r2,32
    1a74:	10c00035 	stwio	r3,0(r2)
    IOWR(CY7C67200_BASE,HPI_DATA,0x0538);//6
    1a78:	00c14e04 	movi	r3,1336
    1a7c:	00824034 	movhi	r2,2304
    1a80:	10800804 	addi	r2,r2,32
    1a84:	10c00035 	stwio	r3,0(r2)
    
    //data phase IN-4
    IOWR(CY7C67200_BASE,HPI_DATA,0x0574); //538
    1a88:	00c15d04 	movi	r3,1396
    1a8c:	00824034 	movhi	r2,2304
    1a90:	10800804 	addi	r2,r2,32
    1a94:	10c00035 	stwio	r3,0(r2)
    IOWR(CY7C67200_BASE,HPI_DATA,0x0008);//a
    1a98:	00c00204 	movi	r3,8
    1a9c:	00824034 	movhi	r2,2304
    1aa0:	10800804 	addi	r2,r2,32
    1aa4:	10c00035 	stwio	r3,0(r2)
    IOWR(CY7C67200_BASE,HPI_DATA,0x0290);//c
    1aa8:	00c0a404 	movi	r3,656
    1aac:	00824034 	movhi	r2,2304
    1ab0:	10800804 	addi	r2,r2,32
    1ab4:	10c00035 	stwio	r3,0(r2)
    IOWR(CY7C67200_BASE,HPI_DATA,0x0001);//e //data0
    1ab8:	00c00044 	movi	r3,1
    1abc:	00824034 	movhi	r2,2304
    1ac0:	10800804 	addi	r2,r2,32
    1ac4:	10c00035 	stwio	r3,0(r2)
    IOWR(CY7C67200_BASE,HPI_DATA,0x0013);//540
    1ac8:	00c004c4 	movi	r3,19
    1acc:	00824034 	movhi	r2,2304
    1ad0:	10800804 	addi	r2,r2,32
    1ad4:	10c00035 	stwio	r3,0(r2)
    IOWR(CY7C67200_BASE,HPI_DATA,0x0544);//2
    1ad8:	00c15104 	movi	r3,1348
    1adc:	00824034 	movhi	r2,2304
    1ae0:	10800804 	addi	r2,r2,32
    1ae4:	10c00035 	stwio	r3,0(r2)
    
    //data phase IN-5
    IOWR(CY7C67200_BASE,HPI_DATA,0x057c); //544
    1ae8:	00c15f04 	movi	r3,1404
    1aec:	00824034 	movhi	r2,2304
    1af0:	10800804 	addi	r2,r2,32
    1af4:	10c00035 	stwio	r3,0(r2)
    IOWR(CY7C67200_BASE,HPI_DATA,0x0002);//6
    1af8:	00c00084 	movi	r3,2
    1afc:	00824034 	movhi	r2,2304
    1b00:	10800804 	addi	r2,r2,32
    1b04:	10c00035 	stwio	r3,0(r2)
    IOWR(CY7C67200_BASE,HPI_DATA,0x0290);//8
    1b08:	00c0a404 	movi	r3,656
    1b0c:	00824034 	movhi	r2,2304
    1b10:	10800804 	addi	r2,r2,32
    1b14:	10c00035 	stwio	r3,0(r2)
    IOWR(CY7C67200_BASE,HPI_DATA,0x0041);//a //data1
    1b18:	00c01044 	movi	r3,65
    1b1c:	00824034 	movhi	r2,2304
    1b20:	10800804 	addi	r2,r2,32
    1b24:	10c00035 	stwio	r3,0(r2)
    IOWR(CY7C67200_BASE,HPI_DATA,0x0013);//c
    1b28:	00c004c4 	movi	r3,19
    1b2c:	00824034 	movhi	r2,2304
    1b30:	10800804 	addi	r2,r2,32
    1b34:	10c00035 	stwio	r3,0(r2)
    IOWR(CY7C67200_BASE,HPI_DATA,0x0550);//e
    1b38:	00c15404 	movi	r3,1360
    1b3c:	00824034 	movhi	r2,2304
    1b40:	10800804 	addi	r2,r2,32
    1b44:	10c00035 	stwio	r3,0(r2)
    
    //status phase
    IOWR(CY7C67200_BASE,HPI_DATA,0x0000); //550
    1b48:	0007883a 	mov	r3,zero
    1b4c:	00824034 	movhi	r2,2304
    1b50:	10800804 	addi	r2,r2,32
    1b54:	10c00035 	stwio	r3,0(r2)
    IOWR(CY7C67200_BASE,HPI_DATA,0x0000);//2
    1b58:	0007883a 	mov	r3,zero
    1b5c:	00824034 	movhi	r2,2304
    1b60:	10800804 	addi	r2,r2,32
    1b64:	10c00035 	stwio	r3,0(r2)
    IOWR(CY7C67200_BASE,HPI_DATA,0x0210);//4
    1b68:	00c08404 	movi	r3,528
    1b6c:	00824034 	movhi	r2,2304
    1b70:	10800804 	addi	r2,r2,32
    1b74:	10c00035 	stwio	r3,0(r2)
    IOWR(CY7C67200_BASE,HPI_DATA,0x0041);//6
    1b78:	00c01044 	movi	r3,65
    1b7c:	00824034 	movhi	r2,2304
    1b80:	10800804 	addi	r2,r2,32
    1b84:	10c00035 	stwio	r3,0(r2)
    IOWR(CY7C67200_BASE,HPI_DATA,0x0013);//8
    1b88:	00c004c4 	movi	r3,19
    1b8c:	00824034 	movhi	r2,2304
    1b90:	10800804 	addi	r2,r2,32
    1b94:	10c00035 	stwio	r3,0(r2)
    IOWR(CY7C67200_BASE,HPI_DATA,0x0000);//a
    1b98:	0007883a 	mov	r3,zero
    1b9c:	00824034 	movhi	r2,2304
    1ba0:	10800804 	addi	r2,r2,32
    1ba4:	10c00035 	stwio	r3,0(r2)
     
    UsbWrite(HUSB_SIE1_pCurrentTDPtr,0x0500); //HUSB_SIE1_pCurrentTDPtr
    1ba8:	01006c04 	movi	r4,432
    1bac:	01414004 	movi	r5,1280
    1bb0:	0003be80 	call	3be8 <UsbWrite>
    
   usleep(100*1000);
    1bb4:	010000b4 	movhi	r4,2
    1bb8:	2121a804 	addi	r4,r4,-31072
    1bbc:	00108ec0 	call	108ec <usleep>
   //if no message
    while (!(IORD(CY7C67200_BASE,HPI_STATUS) & HPI_STATUS_SIE1msg_FLAG) )  //read sie1 msg register
    1bc0:	0000c106 	br	1ec8 <main+0x1c6c>
    {
    //the starting address
    IOWR(CY7C67200_BASE,HPI_ADDR,0x0500); //the start address       
    1bc4:	00c14004 	movi	r3,1280
    1bc8:	00824034 	movhi	r2,2304
    1bcc:	10800a04 	addi	r2,r2,40
    1bd0:	10c00035 	stwio	r3,0(r2)
    IOWR(CY7C67200_BASE,HPI_DATA,0x050C); 
    1bd4:	00c14304 	movi	r3,1292
    1bd8:	00824034 	movhi	r2,2304
    1bdc:	10800804 	addi	r2,r2,32
    1be0:	10c00035 	stwio	r3,0(r2)
    IOWR(CY7C67200_BASE,HPI_DATA,0x0008); //4 port number
    1be4:	00c00204 	movi	r3,8
    1be8:	00824034 	movhi	r2,2304
    1bec:	10800804 	addi	r2,r2,32
    1bf0:	10c00035 	stwio	r3,0(r2)
    IOWR(CY7C67200_BASE,HPI_DATA,0x02D0); //device address
    1bf4:	00c0b404 	movi	r3,720
    1bf8:	00824034 	movhi	r2,2304
    1bfc:	10800804 	addi	r2,r2,32
    1c00:	10c00035 	stwio	r3,0(r2)
    IOWR(CY7C67200_BASE,HPI_DATA,0x0001);
    1c04:	00c00044 	movi	r3,1
    1c08:	00824034 	movhi	r2,2304
    1c0c:	10800804 	addi	r2,r2,32
    1c10:	10c00035 	stwio	r3,0(r2)
    IOWR(CY7C67200_BASE,HPI_DATA,0x0013);
    1c14:	00c004c4 	movi	r3,19
    1c18:	00824034 	movhi	r2,2304
    1c1c:	10800804 	addi	r2,r2,32
    1c20:	10c00035 	stwio	r3,0(r2)
    IOWR(CY7C67200_BASE,HPI_DATA,0x0514);
    1c24:	00c14504 	movi	r3,1300
    1c28:	00824034 	movhi	r2,2304
    1c2c:	10800804 	addi	r2,r2,32
    1c30:	10c00035 	stwio	r3,0(r2)
    
    //td content 4 bytes
    IOWR(CY7C67200_BASE,HPI_DATA,0x0680);//c
    1c34:	00c1a004 	movi	r3,1664
    1c38:	00824034 	movhi	r2,2304
    1c3c:	10800804 	addi	r2,r2,32
    1c40:	10c00035 	stwio	r3,0(r2)
    IOWR(CY7C67200_BASE,HPI_DATA,0x0200);//e //config 
    1c44:	00c08004 	movi	r3,512
    1c48:	00824034 	movhi	r2,2304
    1c4c:	10800804 	addi	r2,r2,32
    1c50:	10c00035 	stwio	r3,0(r2)
    IOWR(CY7C67200_BASE,HPI_DATA,0x0000);//0
    1c54:	0007883a 	mov	r3,zero
    1c58:	00824034 	movhi	r2,2304
    1c5c:	10800804 	addi	r2,r2,32
    1c60:	10c00035 	stwio	r3,0(r2)
    IOWR(CY7C67200_BASE,HPI_DATA,0x00FF);//2
    1c64:	00c03fc4 	movi	r3,255
    1c68:	00824034 	movhi	r2,2304
    1c6c:	10800804 	addi	r2,r2,32
    1c70:	10c00035 	stwio	r3,0(r2)
    
    //data phase IN-1
    IOWR(CY7C67200_BASE,HPI_DATA,0x055c); //514
    1c74:	00c15704 	movi	r3,1372
    1c78:	00824034 	movhi	r2,2304
    1c7c:	10800804 	addi	r2,r2,32
    1c80:	10c00035 	stwio	r3,0(r2)
    IOWR(CY7C67200_BASE,HPI_DATA,0x0008);//6
    1c84:	00c00204 	movi	r3,8
    1c88:	00824034 	movhi	r2,2304
    1c8c:	10800804 	addi	r2,r2,32
    1c90:	10c00035 	stwio	r3,0(r2)
    IOWR(CY7C67200_BASE,HPI_DATA,0x0290);//8
    1c94:	00c0a404 	movi	r3,656
    1c98:	00824034 	movhi	r2,2304
    1c9c:	10800804 	addi	r2,r2,32
    1ca0:	10c00035 	stwio	r3,0(r2)
    IOWR(CY7C67200_BASE,HPI_DATA,0x0041);//a
    1ca4:	00c01044 	movi	r3,65
    1ca8:	00824034 	movhi	r2,2304
    1cac:	10800804 	addi	r2,r2,32
    1cb0:	10c00035 	stwio	r3,0(r2)
    IOWR(CY7C67200_BASE,HPI_DATA,0x0013);//c
    1cb4:	00c004c4 	movi	r3,19
    1cb8:	00824034 	movhi	r2,2304
    1cbc:	10800804 	addi	r2,r2,32
    1cc0:	10c00035 	stwio	r3,0(r2)
    IOWR(CY7C67200_BASE,HPI_DATA,0x0520);//e
    1cc4:	00c14804 	movi	r3,1312
    1cc8:	00824034 	movhi	r2,2304
    1ccc:	10800804 	addi	r2,r2,32
    1cd0:	10c00035 	stwio	r3,0(r2)
    
    //data phase IN-2
    IOWR(CY7C67200_BASE,HPI_DATA,0x0564); //520
    1cd4:	00c15904 	movi	r3,1380
    1cd8:	00824034 	movhi	r2,2304
    1cdc:	10800804 	addi	r2,r2,32
    1ce0:	10c00035 	stwio	r3,0(r2)
    IOWR(CY7C67200_BASE,HPI_DATA,0x0008);//2
    1ce4:	00c00204 	movi	r3,8
    1ce8:	00824034 	movhi	r2,2304
    1cec:	10800804 	addi	r2,r2,32
    1cf0:	10c00035 	stwio	r3,0(r2)
    IOWR(CY7C67200_BASE,HPI_DATA,0x0290);//4
    1cf4:	00c0a404 	movi	r3,656
    1cf8:	00824034 	movhi	r2,2304
    1cfc:	10800804 	addi	r2,r2,32
    1d00:	10c00035 	stwio	r3,0(r2)
    IOWR(CY7C67200_BASE,HPI_DATA,0x0001);//6 //data0
    1d04:	00c00044 	movi	r3,1
    1d08:	00824034 	movhi	r2,2304
    1d0c:	10800804 	addi	r2,r2,32
    1d10:	10c00035 	stwio	r3,0(r2)
    IOWR(CY7C67200_BASE,HPI_DATA,0x0013);//8
    1d14:	00c004c4 	movi	r3,19
    1d18:	00824034 	movhi	r2,2304
    1d1c:	10800804 	addi	r2,r2,32
    1d20:	10c00035 	stwio	r3,0(r2)
    IOWR(CY7C67200_BASE,HPI_DATA,0x052c);//a
    1d24:	00c14b04 	movi	r3,1324
    1d28:	00824034 	movhi	r2,2304
    1d2c:	10800804 	addi	r2,r2,32
    1d30:	10c00035 	stwio	r3,0(r2)
    
    //data phase IN-3
    IOWR(CY7C67200_BASE,HPI_DATA,0x056c); //52c
    1d34:	00c15b04 	movi	r3,1388
    1d38:	00824034 	movhi	r2,2304
    1d3c:	10800804 	addi	r2,r2,32
    1d40:	10c00035 	stwio	r3,0(r2)
    IOWR(CY7C67200_BASE,HPI_DATA,0x0008);//e
    1d44:	00c00204 	movi	r3,8
    1d48:	00824034 	movhi	r2,2304
    1d4c:	10800804 	addi	r2,r2,32
    1d50:	10c00035 	stwio	r3,0(r2)
    IOWR(CY7C67200_BASE,HPI_DATA,0x0290);//530
    1d54:	00c0a404 	movi	r3,656
    1d58:	00824034 	movhi	r2,2304
    1d5c:	10800804 	addi	r2,r2,32
    1d60:	10c00035 	stwio	r3,0(r2)
    IOWR(CY7C67200_BASE,HPI_DATA,0x0041);//2
    1d64:	00c01044 	movi	r3,65
    1d68:	00824034 	movhi	r2,2304
    1d6c:	10800804 	addi	r2,r2,32
    1d70:	10c00035 	stwio	r3,0(r2)
    IOWR(CY7C67200_BASE,HPI_DATA,0x0013);//4
    1d74:	00c004c4 	movi	r3,19
    1d78:	00824034 	movhi	r2,2304
    1d7c:	10800804 	addi	r2,r2,32
    1d80:	10c00035 	stwio	r3,0(r2)
    IOWR(CY7C67200_BASE,HPI_DATA,0x0538);//6
    1d84:	00c14e04 	movi	r3,1336
    1d88:	00824034 	movhi	r2,2304
    1d8c:	10800804 	addi	r2,r2,32
    1d90:	10c00035 	stwio	r3,0(r2)
    
    //data phase IN-4
    IOWR(CY7C67200_BASE,HPI_DATA,0x0574); //538
    1d94:	00c15d04 	movi	r3,1396
    1d98:	00824034 	movhi	r2,2304
    1d9c:	10800804 	addi	r2,r2,32
    1da0:	10c00035 	stwio	r3,0(r2)
    IOWR(CY7C67200_BASE,HPI_DATA,0x0008);//a
    1da4:	00c00204 	movi	r3,8
    1da8:	00824034 	movhi	r2,2304
    1dac:	10800804 	addi	r2,r2,32
    1db0:	10c00035 	stwio	r3,0(r2)
    IOWR(CY7C67200_BASE,HPI_DATA,0x0290);//c
    1db4:	00c0a404 	movi	r3,656
    1db8:	00824034 	movhi	r2,2304
    1dbc:	10800804 	addi	r2,r2,32
    1dc0:	10c00035 	stwio	r3,0(r2)
    IOWR(CY7C67200_BASE,HPI_DATA,0x0001);//e //data0
    1dc4:	00c00044 	movi	r3,1
    1dc8:	00824034 	movhi	r2,2304
    1dcc:	10800804 	addi	r2,r2,32
    1dd0:	10c00035 	stwio	r3,0(r2)
    IOWR(CY7C67200_BASE,HPI_DATA,0x0013);//540
    1dd4:	00c004c4 	movi	r3,19
    1dd8:	00824034 	movhi	r2,2304
    1ddc:	10800804 	addi	r2,r2,32
    1de0:	10c00035 	stwio	r3,0(r2)
    IOWR(CY7C67200_BASE,HPI_DATA,0x0544);//2
    1de4:	00c15104 	movi	r3,1348
    1de8:	00824034 	movhi	r2,2304
    1dec:	10800804 	addi	r2,r2,32
    1df0:	10c00035 	stwio	r3,0(r2)
    
    //data phase IN-5
    IOWR(CY7C67200_BASE,HPI_DATA,0x057c); //544
    1df4:	00c15f04 	movi	r3,1404
    1df8:	00824034 	movhi	r2,2304
    1dfc:	10800804 	addi	r2,r2,32
    1e00:	10c00035 	stwio	r3,0(r2)
    IOWR(CY7C67200_BASE,HPI_DATA,0x0002);//6
    1e04:	00c00084 	movi	r3,2
    1e08:	00824034 	movhi	r2,2304
    1e0c:	10800804 	addi	r2,r2,32
    1e10:	10c00035 	stwio	r3,0(r2)
    IOWR(CY7C67200_BASE,HPI_DATA,0x0290);//8
    1e14:	00c0a404 	movi	r3,656
    1e18:	00824034 	movhi	r2,2304
    1e1c:	10800804 	addi	r2,r2,32
    1e20:	10c00035 	stwio	r3,0(r2)
    IOWR(CY7C67200_BASE,HPI_DATA,0x0041);//a //data1
    1e24:	00c01044 	movi	r3,65
    1e28:	00824034 	movhi	r2,2304
    1e2c:	10800804 	addi	r2,r2,32
    1e30:	10c00035 	stwio	r3,0(r2)
    IOWR(CY7C67200_BASE,HPI_DATA,0x0013);//c
    1e34:	00c004c4 	movi	r3,19
    1e38:	00824034 	movhi	r2,2304
    1e3c:	10800804 	addi	r2,r2,32
    1e40:	10c00035 	stwio	r3,0(r2)
    IOWR(CY7C67200_BASE,HPI_DATA,0x0550);//e
    1e44:	00c15404 	movi	r3,1360
    1e48:	00824034 	movhi	r2,2304
    1e4c:	10800804 	addi	r2,r2,32
    1e50:	10c00035 	stwio	r3,0(r2)
    
    //status phase
    IOWR(CY7C67200_BASE,HPI_DATA,0x0000); //550
    1e54:	0007883a 	mov	r3,zero
    1e58:	00824034 	movhi	r2,2304
    1e5c:	10800804 	addi	r2,r2,32
    1e60:	10c00035 	stwio	r3,0(r2)
    IOWR(CY7C67200_BASE,HPI_DATA,0x0000);//2
    1e64:	0007883a 	mov	r3,zero
    1e68:	00824034 	movhi	r2,2304
    1e6c:	10800804 	addi	r2,r2,32
    1e70:	10c00035 	stwio	r3,0(r2)
    IOWR(CY7C67200_BASE,HPI_DATA,0x0210);//4
    1e74:	00c08404 	movi	r3,528
    1e78:	00824034 	movhi	r2,2304
    1e7c:	10800804 	addi	r2,r2,32
    1e80:	10c00035 	stwio	r3,0(r2)
    IOWR(CY7C67200_BASE,HPI_DATA,0x0041);//6
    1e84:	00c01044 	movi	r3,65
    1e88:	00824034 	movhi	r2,2304
    1e8c:	10800804 	addi	r2,r2,32
    1e90:	10c00035 	stwio	r3,0(r2)
    IOWR(CY7C67200_BASE,HPI_DATA,0x0013);//8
    1e94:	00c004c4 	movi	r3,19
    1e98:	00824034 	movhi	r2,2304
    1e9c:	10800804 	addi	r2,r2,32
    1ea0:	10c00035 	stwio	r3,0(r2)
    IOWR(CY7C67200_BASE,HPI_DATA,0x0000);//a
    1ea4:	0007883a 	mov	r3,zero
    1ea8:	00824034 	movhi	r2,2304
    1eac:	10800804 	addi	r2,r2,32
    1eb0:	10c00035 	stwio	r3,0(r2)
          
    UsbWrite(HUSB_SIE1_pCurrentTDPtr,0x0500); //HUSB_SIE1_pCurrentTDPtr
    1eb4:	01006c04 	movi	r4,432
    1eb8:	01414004 	movi	r5,1280
    1ebc:	0003be80 	call	3be8 <UsbWrite>
    usleep(10*1000);
    1ec0:	0109c404 	movi	r4,10000
    1ec4:	00108ec0 	call	108ec <usleep>
     
    UsbWrite(HUSB_SIE1_pCurrentTDPtr,0x0500); //HUSB_SIE1_pCurrentTDPtr
    
   usleep(100*1000);
   //if no message
    while (!(IORD(CY7C67200_BASE,HPI_STATUS) & HPI_STATUS_SIE1msg_FLAG) )  //read sie1 msg register
    1ec8:	00824034 	movhi	r2,2304
    1ecc:	10800b04 	addi	r2,r2,44
    1ed0:	10800037 	ldwio	r2,0(r2)
    1ed4:	1080040c 	andi	r2,r2,16
    1ed8:	103f3a26 	beq	r2,zero,1bc4 <__alt_mem_sram+0xf7e01bc4>
          
    UsbWrite(HUSB_SIE1_pCurrentTDPtr,0x0500); //HUSB_SIE1_pCurrentTDPtr
    usleep(10*1000);
    }
    //UsbRead(0x01B8);
    usb_ctl_val = UsbRead(HPI_SIE1_MSG_ADR);
    1edc:	01005104 	movi	r4,324
    1ee0:	0003c340 	call	3c34 <UsbRead>
    1ee4:	e0bff80d 	sth	r2,-32(fp)
    UsbWrite(HPI_SIE1_MSG_ADR, 0);
    1ee8:	01005104 	movi	r4,324
    1eec:	000b883a 	mov	r5,zero
    1ef0:	0003be80 	call	3be8 <UsbWrite>
    while (usb_ctl_val != 0x1000)  //read sie1 msg register
    1ef4:	00000d06 	br	1f2c <main+0x1cd0>
    {
       if(usb_ctl_val == 0x000)
    1ef8:	e0bff80b 	ldhu	r2,-32(fp)
    1efc:	10000526 	beq	r2,zero,1f14 <main+0x1cb8>
       {
       }
       else
       {
        printf("[SIE MSG]:SIE1 msg reg is %x\n",usb_ctl_val);
    1f00:	e0bff80b 	ldhu	r2,-32(fp)
    1f04:	01000074 	movhi	r4,1
    1f08:	210b3d04 	addi	r4,r4,11508
    1f0c:	100b883a 	mov	r5,r2
    1f10:	0003d5c0 	call	3d5c <printf>
       }
       usb_ctl_val = UsbRead(HPI_SIE1_MSG_ADR);
    1f14:	01005104 	movi	r4,324
    1f18:	0003c340 	call	3c34 <UsbRead>
    1f1c:	e0bff80d 	sth	r2,-32(fp)
       UsbWrite(HPI_SIE1_MSG_ADR, 0);
    1f20:	01005104 	movi	r4,324
    1f24:	000b883a 	mov	r5,zero
    1f28:	0003be80 	call	3be8 <UsbWrite>
    usleep(10*1000);
    }
    //UsbRead(0x01B8);
    usb_ctl_val = UsbRead(HPI_SIE1_MSG_ADR);
    UsbWrite(HPI_SIE1_MSG_ADR, 0);
    while (usb_ctl_val != 0x1000)  //read sie1 msg register
    1f2c:	e0bff80b 	ldhu	r2,-32(fp)
    1f30:	10840018 	cmpnei	r2,r2,4096
    1f34:	103ff01e 	bne	r2,zero,1ef8 <__alt_mem_sram+0xf7e01ef8>
       usb_ctl_val = UsbRead(HPI_SIE1_MSG_ADR);
       UsbWrite(HPI_SIE1_MSG_ADR, 0);
      
    }

    IOWR(CY7C67200_BASE,HPI_ADDR,0x0506);
    1f38:	00c14184 	movi	r3,1286
    1f3c:	00824034 	movhi	r2,2304
    1f40:	10800a04 	addi	r2,r2,40
    1f44:	10c00035 	stwio	r3,0(r2)
    printf("[ENUM PROCESS]:step 6 TD Status Byte is %x\n",IORD(CY7C67200_BASE,HPI_DATA));
    1f48:	00824034 	movhi	r2,2304
    1f4c:	10800804 	addi	r2,r2,32
    1f50:	10800037 	ldwio	r2,0(r2)
    1f54:	01000074 	movhi	r4,1
    1f58:	210b4504 	addi	r4,r4,11540
    1f5c:	100b883a 	mov	r5,r2
    1f60:	0003d5c0 	call	3d5c <printf>
    
    IOWR(CY7C67200_BASE,HPI_ADDR,0x0508);
    1f64:	00c14204 	movi	r3,1288
    1f68:	00824034 	movhi	r2,2304
    1f6c:	10800a04 	addi	r2,r2,40
    1f70:	10c00035 	stwio	r3,0(r2)
    usb_ctl_val = IORD(CY7C67200_BASE,HPI_DATA);
    1f74:	00824034 	movhi	r2,2304
    1f78:	10800804 	addi	r2,r2,32
    1f7c:	10800037 	ldwio	r2,0(r2)
    1f80:	e0bff80d 	sth	r2,-32(fp)
    printf("[ENUM PROCESS]:step 6 TD Control Byte is %x\n",usb_ctl_val);
    1f84:	e0bff80b 	ldhu	r2,-32(fp)
    1f88:	01000074 	movhi	r4,1
    1f8c:	210b5004 	addi	r4,r4,11584
    1f90:	100b883a 	mov	r5,r2
    1f94:	0003d5c0 	call	3d5c <printf>
    while (usb_ctl_val != 0x03) 
    1f98:	00001906 	br	2000 <main+0x1da4>
    {
       IORD(CY7C67200_BASE,HPI_STATUS);
    1f9c:	00824034 	movhi	r2,2304
    1fa0:	10800b04 	addi	r2,r2,44
    1fa4:	10800037 	ldwio	r2,0(r2)
       if(UsbRead(HPI_SIE1_MSG_ADR) == 0x1000)
    1fa8:	01005104 	movi	r4,324
    1fac:	0003c340 	call	3c34 <UsbRead>
    1fb0:	10bfffcc 	andi	r2,r2,65535
    1fb4:	10840018 	cmpnei	r2,r2,4096
    1fb8:	1000091e 	bne	r2,zero,1fe0 <main+0x1d84>
       {
           UsbWrite(HPI_SIE1_MSG_ADR, 0);
    1fbc:	01005104 	movi	r4,324
    1fc0:	000b883a 	mov	r5,zero
    1fc4:	0003be80 	call	3be8 <UsbWrite>
                   
           while (!(IORD(CY7C67200_BASE,HPI_STATUS) & HPI_STATUS_SIE1msg_FLAG) )  //read sie1 msg register
    1fc8:	0001883a 	nop
    1fcc:	00824034 	movhi	r2,2304
    1fd0:	10800b04 	addi	r2,r2,44
    1fd4:	10800037 	ldwio	r2,0(r2)
    1fd8:	1080040c 	andi	r2,r2,16
    1fdc:	103ffb26 	beq	r2,zero,1fcc <__alt_mem_sram+0xf7e01fcc>
           {
            
           }
        }
           //usleep(1000);
           IOWR(CY7C67200_BASE,HPI_ADDR,0x0508);
    1fe0:	00c14204 	movi	r3,1288
    1fe4:	00824034 	movhi	r2,2304
    1fe8:	10800a04 	addi	r2,r2,40
    1fec:	10c00035 	stwio	r3,0(r2)
           usb_ctl_val = IORD(CY7C67200_BASE,HPI_DATA); 
    1ff0:	00824034 	movhi	r2,2304
    1ff4:	10800804 	addi	r2,r2,32
    1ff8:	10800037 	ldwio	r2,0(r2)
    1ffc:	e0bff80d 	sth	r2,-32(fp)
    printf("[ENUM PROCESS]:step 6 TD Status Byte is %x\n",IORD(CY7C67200_BASE,HPI_DATA));
    
    IOWR(CY7C67200_BASE,HPI_ADDR,0x0508);
    usb_ctl_val = IORD(CY7C67200_BASE,HPI_DATA);
    printf("[ENUM PROCESS]:step 6 TD Control Byte is %x\n",usb_ctl_val);
    while (usb_ctl_val != 0x03) 
    2000:	e0bff80b 	ldhu	r2,-32(fp)
    2004:	108000d8 	cmpnei	r2,r2,3
    2008:	103fe41e 	bne	r2,zero,1f9c <__alt_mem_sram+0xf7e01f9c>
           IOWR(CY7C67200_BASE,HPI_ADDR,0x0508);
           usb_ctl_val = IORD(CY7C67200_BASE,HPI_DATA); 
    }    
       
       
    printf("-----------[ENUM PROCESS]:get configuration descriptor-2 pass!------------\n");
    200c:	01000074 	movhi	r4,1
    2010:	210b5c04 	addi	r4,r4,11632
    2014:	0003e500 	call	3e50 <puts>
    

    IOWR(CY7C67200_BASE,HPI_ADDR,0x056c); //the start address
    2018:	00c15b04 	movi	r3,1388
    201c:	00824034 	movhi	r2,2304
    2020:	10800a04 	addi	r2,r2,40
    2024:	10c00035 	stwio	r3,0(r2)

    if(  ( IORD(CY7C67200_BASE,HPI_DATA) & 0x0ff)  ==0x02)
    2028:	00824034 	movhi	r2,2304
    202c:	10800804 	addi	r2,r2,32
    2030:	10800037 	ldwio	r2,0(r2)
    2034:	10803fcc 	andi	r2,r2,255
    2038:	10800098 	cmpnei	r2,r2,2
    203c:	1000041e 	bne	r2,zero,2050 <main+0x1df4>
    {
         printf("\n[INFO]:check TD rec data7 \n[INFO]:Mouse Detected!!!\n\n");
    2040:	01000074 	movhi	r4,1
    2044:	210b6f04 	addi	r4,r4,11708
    2048:	0003e500 	call	3e50 <puts>
    204c:	00000306 	br	205c <main+0x1e00>
    }
    else
    {
        printf("\n[INFO]:Mouse Not Detected!!! \n\n");
    2050:	01000074 	movhi	r4,1
    2054:	210b7d04 	addi	r4,r4,11764
    2058:	0003e500 	call	3e50 <puts>
    }
    
    IOWR(CY7C67200_BASE,HPI_ADDR,0x057a); //the start address   
    205c:	00c15e84 	movi	r3,1402
    2060:	00824034 	movhi	r2,2304
    2064:	10800a04 	addi	r2,r2,40
    2068:	10c00035 	stwio	r3,0(r2)
      
    data_size = (IORD(CY7C67200_BASE,HPI_DATA)>>8)&0x0ff; 
    206c:	00824034 	movhi	r2,2304
    2070:	10800804 	addi	r2,r2,32
    2074:	10800037 	ldwio	r2,0(r2)
    2078:	1005d23a 	srai	r2,r2,8
    207c:	e0bffe85 	stb	r2,-6(fp)
    printf("[ENUM PROCESS]:data packet size is %d\n",data_size);
    2080:	e0bffe83 	ldbu	r2,-6(fp)
    2084:	01000074 	movhi	r4,1
    2088:	210b8504 	addi	r4,r4,11796
    208c:	100b883a 	mov	r5,r2
    2090:	0003d5c0 	call	3d5c <printf>
    
    //------------------------------------set configuration -----------------------------------------//
    //the starting address
    IOWR(CY7C67200_BASE,HPI_ADDR,0x0500); //the start address       
    2094:	00c14004 	movi	r3,1280
    2098:	00824034 	movhi	r2,2304
    209c:	10800a04 	addi	r2,r2,40
    20a0:	10c00035 	stwio	r3,0(r2)
    IOWR(CY7C67200_BASE,HPI_DATA,0x050C); 
    20a4:	00c14304 	movi	r3,1292
    20a8:	00824034 	movhi	r2,2304
    20ac:	10800804 	addi	r2,r2,32
    20b0:	10c00035 	stwio	r3,0(r2)
    IOWR(CY7C67200_BASE,HPI_DATA,0x0008); //4 port number
    20b4:	00c00204 	movi	r3,8
    20b8:	00824034 	movhi	r2,2304
    20bc:	10800804 	addi	r2,r2,32
    20c0:	10c00035 	stwio	r3,0(r2)
    IOWR(CY7C67200_BASE,HPI_DATA,0x02D0); //port address
    20c4:	00c0b404 	movi	r3,720
    20c8:	00824034 	movhi	r2,2304
    20cc:	10800804 	addi	r2,r2,32
    20d0:	10c00035 	stwio	r3,0(r2)
    IOWR(CY7C67200_BASE,HPI_DATA,0x0001);
    20d4:	00c00044 	movi	r3,1
    20d8:	00824034 	movhi	r2,2304
    20dc:	10800804 	addi	r2,r2,32
    20e0:	10c00035 	stwio	r3,0(r2)
    IOWR(CY7C67200_BASE,HPI_DATA,0x0013);
    20e4:	00c004c4 	movi	r3,19
    20e8:	00824034 	movhi	r2,2304
    20ec:	10800804 	addi	r2,r2,32
    20f0:	10c00035 	stwio	r3,0(r2)
    IOWR(CY7C67200_BASE,HPI_DATA,0x0514);
    20f4:	00c14504 	movi	r3,1300
    20f8:	00824034 	movhi	r2,2304
    20fc:	10800804 	addi	r2,r2,32
    2100:	10c00035 	stwio	r3,0(r2)
    
    //td content 4 bytes
    IOWR(CY7C67200_BASE,HPI_DATA,0x0900);
    2104:	00c24004 	movi	r3,2304
    2108:	00824034 	movhi	r2,2304
    210c:	10800804 	addi	r2,r2,32
    2110:	10c00035 	stwio	r3,0(r2)
    IOWR(CY7C67200_BASE,HPI_DATA,0x0001);//device address   
    2114:	00c00044 	movi	r3,1
    2118:	00824034 	movhi	r2,2304
    211c:	10800804 	addi	r2,r2,32
    2120:	10c00035 	stwio	r3,0(r2)
    IOWR(CY7C67200_BASE,HPI_DATA,0x0000);
    2124:	0007883a 	mov	r3,zero
    2128:	00824034 	movhi	r2,2304
    212c:	10800804 	addi	r2,r2,32
    2130:	10c00035 	stwio	r3,0(r2)
    IOWR(CY7C67200_BASE,HPI_DATA,0x0000);
    2134:	0007883a 	mov	r3,zero
    2138:	00824034 	movhi	r2,2304
    213c:	10800804 	addi	r2,r2,32
    2140:	10c00035 	stwio	r3,0(r2)
    //in packet
    IOWR(CY7C67200_BASE,HPI_DATA,0x0000); //don't care
    2144:	0007883a 	mov	r3,zero
    2148:	00824034 	movhi	r2,2304
    214c:	10800804 	addi	r2,r2,32
    2150:	10c00035 	stwio	r3,0(r2)
    IOWR(CY7C67200_BASE,HPI_DATA,0x0000);//port number
    2154:	0007883a 	mov	r3,zero
    2158:	00824034 	movhi	r2,2304
    215c:	10800804 	addi	r2,r2,32
    2160:	10c00035 	stwio	r3,0(r2)
    IOWR(CY7C67200_BASE,HPI_DATA,0x0290);//device address
    2164:	00c0a404 	movi	r3,656
    2168:	00824034 	movhi	r2,2304
    216c:	10800804 	addi	r2,r2,32
    2170:	10c00035 	stwio	r3,0(r2)
    IOWR(CY7C67200_BASE,HPI_DATA,0x0041); //data 1
    2174:	00c01044 	movi	r3,65
    2178:	00824034 	movhi	r2,2304
    217c:	10800804 	addi	r2,r2,32
    2180:	10c00035 	stwio	r3,0(r2)
    IOWR(CY7C67200_BASE,HPI_DATA,0x0013);
    2184:	00c004c4 	movi	r3,19
    2188:	00824034 	movhi	r2,2304
    218c:	10800804 	addi	r2,r2,32
    2190:	10c00035 	stwio	r3,0(r2)
    IOWR(CY7C67200_BASE,HPI_DATA,0x0000);
    2194:	0007883a 	mov	r3,zero
    2198:	00824034 	movhi	r2,2304
    219c:	10800804 	addi	r2,r2,32
    21a0:	10c00035 	stwio	r3,0(r2)
     
    UsbWrite(HUSB_SIE1_pCurrentTDPtr,0x0500); //HUSB_SIE1_pCurrentTDPtr
    21a4:	01006c04 	movi	r4,432
    21a8:	01414004 	movi	r5,1280
    21ac:	0003be80 	call	3be8 <UsbWrite>
    //usleep(10*1000);
   
    while (!(IORD(CY7C67200_BASE,HPI_STATUS) & HPI_STATUS_SIE1msg_FLAG) )  //read sie1 msg register
    21b0:	00004906 	br	22d8 <main+0x207c>
    {
        IOWR(CY7C67200_BASE,HPI_ADDR,0x0500); //the start address       
    21b4:	00c14004 	movi	r3,1280
    21b8:	00824034 	movhi	r2,2304
    21bc:	10800a04 	addi	r2,r2,40
    21c0:	10c00035 	stwio	r3,0(r2)
        IOWR(CY7C67200_BASE,HPI_DATA,0x050C); 
    21c4:	00c14304 	movi	r3,1292
    21c8:	00824034 	movhi	r2,2304
    21cc:	10800804 	addi	r2,r2,32
    21d0:	10c00035 	stwio	r3,0(r2)
        IOWR(CY7C67200_BASE,HPI_DATA,0x0008); //4 port number
    21d4:	00c00204 	movi	r3,8
    21d8:	00824034 	movhi	r2,2304
    21dc:	10800804 	addi	r2,r2,32
    21e0:	10c00035 	stwio	r3,0(r2)
        IOWR(CY7C67200_BASE,HPI_DATA,0x02D0);
    21e4:	00c0b404 	movi	r3,720
    21e8:	00824034 	movhi	r2,2304
    21ec:	10800804 	addi	r2,r2,32
    21f0:	10c00035 	stwio	r3,0(r2)
        IOWR(CY7C67200_BASE,HPI_DATA,0x0001);
    21f4:	00c00044 	movi	r3,1
    21f8:	00824034 	movhi	r2,2304
    21fc:	10800804 	addi	r2,r2,32
    2200:	10c00035 	stwio	r3,0(r2)
        IOWR(CY7C67200_BASE,HPI_DATA,0x0013);
    2204:	00c004c4 	movi	r3,19
    2208:	00824034 	movhi	r2,2304
    220c:	10800804 	addi	r2,r2,32
    2210:	10c00035 	stwio	r3,0(r2)
        IOWR(CY7C67200_BASE,HPI_DATA,0x0514);
    2214:	00c14504 	movi	r3,1300
    2218:	00824034 	movhi	r2,2304
    221c:	10800804 	addi	r2,r2,32
    2220:	10c00035 	stwio	r3,0(r2)
    
        //td content 4 bytes
        IOWR(CY7C67200_BASE,HPI_DATA,0x0900);
    2224:	00c24004 	movi	r3,2304
    2228:	00824034 	movhi	r2,2304
    222c:	10800804 	addi	r2,r2,32
    2230:	10c00035 	stwio	r3,0(r2)
        IOWR(CY7C67200_BASE,HPI_DATA,0x0001);//device address   
    2234:	00c00044 	movi	r3,1
    2238:	00824034 	movhi	r2,2304
    223c:	10800804 	addi	r2,r2,32
    2240:	10c00035 	stwio	r3,0(r2)
        IOWR(CY7C67200_BASE,HPI_DATA,0x0000);
    2244:	0007883a 	mov	r3,zero
    2248:	00824034 	movhi	r2,2304
    224c:	10800804 	addi	r2,r2,32
    2250:	10c00035 	stwio	r3,0(r2)
        IOWR(CY7C67200_BASE,HPI_DATA,0x0000);
    2254:	0007883a 	mov	r3,zero
    2258:	00824034 	movhi	r2,2304
    225c:	10800804 	addi	r2,r2,32
    2260:	10c00035 	stwio	r3,0(r2)
        //in packet
        IOWR(CY7C67200_BASE,HPI_DATA,0x0000); //don't care
    2264:	0007883a 	mov	r3,zero
    2268:	00824034 	movhi	r2,2304
    226c:	10800804 	addi	r2,r2,32
    2270:	10c00035 	stwio	r3,0(r2)
        IOWR(CY7C67200_BASE,HPI_DATA,0x0000);//port number
    2274:	0007883a 	mov	r3,zero
    2278:	00824034 	movhi	r2,2304
    227c:	10800804 	addi	r2,r2,32
    2280:	10c00035 	stwio	r3,0(r2)
        IOWR(CY7C67200_BASE,HPI_DATA,0x0290);//device address
    2284:	00c0a404 	movi	r3,656
    2288:	00824034 	movhi	r2,2304
    228c:	10800804 	addi	r2,r2,32
    2290:	10c00035 	stwio	r3,0(r2)
        IOWR(CY7C67200_BASE,HPI_DATA,0x0041); //data 1
    2294:	00c01044 	movi	r3,65
    2298:	00824034 	movhi	r2,2304
    229c:	10800804 	addi	r2,r2,32
    22a0:	10c00035 	stwio	r3,0(r2)
        IOWR(CY7C67200_BASE,HPI_DATA,0x0013);
    22a4:	00c004c4 	movi	r3,19
    22a8:	00824034 	movhi	r2,2304
    22ac:	10800804 	addi	r2,r2,32
    22b0:	10c00035 	stwio	r3,0(r2)
        IOWR(CY7C67200_BASE,HPI_DATA,0x0000);
    22b4:	0007883a 	mov	r3,zero
    22b8:	00824034 	movhi	r2,2304
    22bc:	10800804 	addi	r2,r2,32
    22c0:	10c00035 	stwio	r3,0(r2)
        
        UsbWrite(HUSB_SIE1_pCurrentTDPtr,0x0500); //HUSB_SIE1_pCurrentTDPtr
    22c4:	01006c04 	movi	r4,432
    22c8:	01414004 	movi	r5,1280
    22cc:	0003be80 	call	3be8 <UsbWrite>
        usleep(10*1000);
    22d0:	0109c404 	movi	r4,10000
    22d4:	00108ec0 	call	108ec <usleep>
    IOWR(CY7C67200_BASE,HPI_DATA,0x0000);
     
    UsbWrite(HUSB_SIE1_pCurrentTDPtr,0x0500); //HUSB_SIE1_pCurrentTDPtr
    //usleep(10*1000);
   
    while (!(IORD(CY7C67200_BASE,HPI_STATUS) & HPI_STATUS_SIE1msg_FLAG) )  //read sie1 msg register
    22d8:	00824034 	movhi	r2,2304
    22dc:	10800b04 	addi	r2,r2,44
    22e0:	10800037 	ldwio	r2,0(r2)
    22e4:	1080040c 	andi	r2,r2,16
    22e8:	103fb226 	beq	r2,zero,21b4 <__alt_mem_sram+0xf7e021b4>
        
        UsbWrite(HUSB_SIE1_pCurrentTDPtr,0x0500); //HUSB_SIE1_pCurrentTDPtr
        usleep(10*1000);
    }
    
    usb_ctl_val = UsbRead(HPI_SIE1_MSG_ADR);
    22ec:	01005104 	movi	r4,324
    22f0:	0003c340 	call	3c34 <UsbRead>
    22f4:	e0bff80d 	sth	r2,-32(fp)
    UsbWrite(HPI_SIE1_MSG_ADR, 0);
    22f8:	01005104 	movi	r4,324
    22fc:	000b883a 	mov	r5,zero
    2300:	0003be80 	call	3be8 <UsbWrite>
    while (usb_ctl_val != 0x1000)  //read sie1 msg register
    2304:	00000d06 	br	233c <main+0x20e0>
    {
       if(usb_ctl_val == 0x000)
    2308:	e0bff80b 	ldhu	r2,-32(fp)
    230c:	10000526 	beq	r2,zero,2324 <main+0x20c8>
       {
       }
       else
       {
        printf("[SIE1 MSG]:SIE1 msg reg is %x\n",usb_ctl_val);
    2310:	e0bff80b 	ldhu	r2,-32(fp)
    2314:	01000074 	movhi	r4,1
    2318:	210aa804 	addi	r4,r4,10912
    231c:	100b883a 	mov	r5,r2
    2320:	0003d5c0 	call	3d5c <printf>
       }
       usb_ctl_val = UsbRead(HPI_SIE1_MSG_ADR);
    2324:	01005104 	movi	r4,324
    2328:	0003c340 	call	3c34 <UsbRead>
    232c:	e0bff80d 	sth	r2,-32(fp)
       UsbWrite(HPI_SIE1_MSG_ADR, 0);
    2330:	01005104 	movi	r4,324
    2334:	000b883a 	mov	r5,zero
    2338:	0003be80 	call	3be8 <UsbWrite>
        usleep(10*1000);
    }
    
    usb_ctl_val = UsbRead(HPI_SIE1_MSG_ADR);
    UsbWrite(HPI_SIE1_MSG_ADR, 0);
    while (usb_ctl_val != 0x1000)  //read sie1 msg register
    233c:	e0bff80b 	ldhu	r2,-32(fp)
    2340:	10840018 	cmpnei	r2,r2,4096
    2344:	103ff01e 	bne	r2,zero,2308 <__alt_mem_sram+0xf7e02308>
       usb_ctl_val = UsbRead(HPI_SIE1_MSG_ADR);
       UsbWrite(HPI_SIE1_MSG_ADR, 0);
      
    }

    IOWR(CY7C67200_BASE,HPI_ADDR,0x0506);
    2348:	00c14184 	movi	r3,1286
    234c:	00824034 	movhi	r2,2304
    2350:	10800a04 	addi	r2,r2,40
    2354:	10c00035 	stwio	r3,0(r2)
    printf("[ENUM PROCESS]:step 7 TD Status Byte is %x\n",IORD(CY7C67200_BASE,HPI_DATA));
    2358:	00824034 	movhi	r2,2304
    235c:	10800804 	addi	r2,r2,32
    2360:	10800037 	ldwio	r2,0(r2)
    2364:	01000074 	movhi	r4,1
    2368:	210b8f04 	addi	r4,r4,11836
    236c:	100b883a 	mov	r5,r2
    2370:	0003d5c0 	call	3d5c <printf>
    
    IOWR(CY7C67200_BASE,HPI_ADDR,0x0508);
    2374:	00c14204 	movi	r3,1288
    2378:	00824034 	movhi	r2,2304
    237c:	10800a04 	addi	r2,r2,40
    2380:	10c00035 	stwio	r3,0(r2)
    usb_ctl_val = IORD(CY7C67200_BASE,HPI_DATA);
    2384:	00824034 	movhi	r2,2304
    2388:	10800804 	addi	r2,r2,32
    238c:	10800037 	ldwio	r2,0(r2)
    2390:	e0bff80d 	sth	r2,-32(fp)
    printf("[ENUM PROCESS]:step 7 TD Control Byte is %x\n",usb_ctl_val);
    2394:	e0bff80b 	ldhu	r2,-32(fp)
    2398:	01000074 	movhi	r4,1
    239c:	210b9a04 	addi	r4,r4,11880
    23a0:	100b883a 	mov	r5,r2
    23a4:	0003d5c0 	call	3d5c <printf>
    while (usb_ctl_val != 0x03) 
    23a8:	00001906 	br	2410 <main+0x21b4>
    {
       IORD(CY7C67200_BASE,HPI_STATUS);
    23ac:	00824034 	movhi	r2,2304
    23b0:	10800b04 	addi	r2,r2,44
    23b4:	10800037 	ldwio	r2,0(r2)
       if(UsbRead(HPI_SIE1_MSG_ADR) == 0x1000)
    23b8:	01005104 	movi	r4,324
    23bc:	0003c340 	call	3c34 <UsbRead>
    23c0:	10bfffcc 	andi	r2,r2,65535
    23c4:	10840018 	cmpnei	r2,r2,4096
    23c8:	1000091e 	bne	r2,zero,23f0 <main+0x2194>
       {
           UsbWrite(HPI_SIE1_MSG_ADR, 0);
    23cc:	01005104 	movi	r4,324
    23d0:	000b883a 	mov	r5,zero
    23d4:	0003be80 	call	3be8 <UsbWrite>
           
        
           while (!(IORD(CY7C67200_BASE,HPI_STATUS) & HPI_STATUS_SIE1msg_FLAG) )  //read sie1 msg register
    23d8:	0001883a 	nop
    23dc:	00824034 	movhi	r2,2304
    23e0:	10800b04 	addi	r2,r2,44
    23e4:	10800037 	ldwio	r2,0(r2)
    23e8:	1080040c 	andi	r2,r2,16
    23ec:	103ffb26 	beq	r2,zero,23dc <__alt_mem_sram+0xf7e023dc>
           {
           }
        }
           //usleep(1000);
           IOWR(CY7C67200_BASE,HPI_ADDR,0x0508);
    23f0:	00c14204 	movi	r3,1288
    23f4:	00824034 	movhi	r2,2304
    23f8:	10800a04 	addi	r2,r2,40
    23fc:	10c00035 	stwio	r3,0(r2)
           usb_ctl_val = IORD(CY7C67200_BASE,HPI_DATA); 
    2400:	00824034 	movhi	r2,2304
    2404:	10800804 	addi	r2,r2,32
    2408:	10800037 	ldwio	r2,0(r2)
    240c:	e0bff80d 	sth	r2,-32(fp)
    printf("[ENUM PROCESS]:step 7 TD Status Byte is %x\n",IORD(CY7C67200_BASE,HPI_DATA));
    
    IOWR(CY7C67200_BASE,HPI_ADDR,0x0508);
    usb_ctl_val = IORD(CY7C67200_BASE,HPI_DATA);
    printf("[ENUM PROCESS]:step 7 TD Control Byte is %x\n",usb_ctl_val);
    while (usb_ctl_val != 0x03) 
    2410:	e0bff80b 	ldhu	r2,-32(fp)
    2414:	108000d8 	cmpnei	r2,r2,3
    2418:	103fe41e 	bne	r2,zero,23ac <__alt_mem_sram+0xf7e023ac>
           //usleep(1000);
           IOWR(CY7C67200_BASE,HPI_ADDR,0x0508);
           usb_ctl_val = IORD(CY7C67200_BASE,HPI_DATA); 
    }    
    
    printf("------------[ENUM PROCESS]:set configuration pass!-------------------\n");
    241c:	01000074 	movhi	r4,1
    2420:	210ba604 	addi	r4,r4,11928
    2424:	0003e500 	call	3e50 <puts>
    
    //----------------------------------------------classe request out ------------------------------------------//
    //the starting address
    IOWR(CY7C67200_BASE,HPI_ADDR,0x0500); //the start address       
    2428:	00c14004 	movi	r3,1280
    242c:	00824034 	movhi	r2,2304
    2430:	10800a04 	addi	r2,r2,40
    2434:	10c00035 	stwio	r3,0(r2)
    IOWR(CY7C67200_BASE,HPI_DATA,0x050C); 
    2438:	00c14304 	movi	r3,1292
    243c:	00824034 	movhi	r2,2304
    2440:	10800804 	addi	r2,r2,32
    2444:	10c00035 	stwio	r3,0(r2)
    IOWR(CY7C67200_BASE,HPI_DATA,0x0008); //4 port number
    2448:	00c00204 	movi	r3,8
    244c:	00824034 	movhi	r2,2304
    2450:	10800804 	addi	r2,r2,32
    2454:	10c00035 	stwio	r3,0(r2)
    IOWR(CY7C67200_BASE,HPI_DATA,0x02D0); //port address
    2458:	00c0b404 	movi	r3,720
    245c:	00824034 	movhi	r2,2304
    2460:	10800804 	addi	r2,r2,32
    2464:	10c00035 	stwio	r3,0(r2)
    IOWR(CY7C67200_BASE,HPI_DATA,0x0001);
    2468:	00c00044 	movi	r3,1
    246c:	00824034 	movhi	r2,2304
    2470:	10800804 	addi	r2,r2,32
    2474:	10c00035 	stwio	r3,0(r2)
    IOWR(CY7C67200_BASE,HPI_DATA,0x0013);
    2478:	00c004c4 	movi	r3,19
    247c:	00824034 	movhi	r2,2304
    2480:	10800804 	addi	r2,r2,32
    2484:	10c00035 	stwio	r3,0(r2)
    IOWR(CY7C67200_BASE,HPI_DATA,0x0514);
    2488:	00c14504 	movi	r3,1300
    248c:	00824034 	movhi	r2,2304
    2490:	10800804 	addi	r2,r2,32
    2494:	10c00035 	stwio	r3,0(r2)
    
    //td content 4 bytes
    IOWR(CY7C67200_BASE,HPI_DATA,0x0A21);
    2498:	00c28844 	movi	r3,2593
    249c:	00824034 	movhi	r2,2304
    24a0:	10800804 	addi	r2,r2,32
    24a4:	10c00035 	stwio	r3,0(r2)
    IOWR(CY7C67200_BASE,HPI_DATA,0x0000);//device address   
    24a8:	0007883a 	mov	r3,zero
    24ac:	00824034 	movhi	r2,2304
    24b0:	10800804 	addi	r2,r2,32
    24b4:	10c00035 	stwio	r3,0(r2)
    IOWR(CY7C67200_BASE,HPI_DATA,0x0000);
    24b8:	0007883a 	mov	r3,zero
    24bc:	00824034 	movhi	r2,2304
    24c0:	10800804 	addi	r2,r2,32
    24c4:	10c00035 	stwio	r3,0(r2)
    IOWR(CY7C67200_BASE,HPI_DATA,0x0000);
    24c8:	0007883a 	mov	r3,zero
    24cc:	00824034 	movhi	r2,2304
    24d0:	10800804 	addi	r2,r2,32
    24d4:	10c00035 	stwio	r3,0(r2)
    //in packet
    IOWR(CY7C67200_BASE,HPI_DATA,0x0000); //don't care
    24d8:	0007883a 	mov	r3,zero
    24dc:	00824034 	movhi	r2,2304
    24e0:	10800804 	addi	r2,r2,32
    24e4:	10c00035 	stwio	r3,0(r2)
    IOWR(CY7C67200_BASE,HPI_DATA,0x0000);//port number /data length
    24e8:	0007883a 	mov	r3,zero
    24ec:	00824034 	movhi	r2,2304
    24f0:	10800804 	addi	r2,r2,32
    24f4:	10c00035 	stwio	r3,0(r2)
    IOWR(CY7C67200_BASE,HPI_DATA,0x0290);//device address
    24f8:	00c0a404 	movi	r3,656
    24fc:	00824034 	movhi	r2,2304
    2500:	10800804 	addi	r2,r2,32
    2504:	10c00035 	stwio	r3,0(r2)
    IOWR(CY7C67200_BASE,HPI_DATA,0x0041); //data 1
    2508:	00c01044 	movi	r3,65
    250c:	00824034 	movhi	r2,2304
    2510:	10800804 	addi	r2,r2,32
    2514:	10c00035 	stwio	r3,0(r2)
    IOWR(CY7C67200_BASE,HPI_DATA,0x0013);
    2518:	00c004c4 	movi	r3,19
    251c:	00824034 	movhi	r2,2304
    2520:	10800804 	addi	r2,r2,32
    2524:	10c00035 	stwio	r3,0(r2)
    IOWR(CY7C67200_BASE,HPI_DATA,0x0000);
    2528:	0007883a 	mov	r3,zero
    252c:	00824034 	movhi	r2,2304
    2530:	10800804 	addi	r2,r2,32
    2534:	10c00035 	stwio	r3,0(r2)
     
    UsbWrite(HUSB_SIE1_pCurrentTDPtr,0x0500); //HUSB_SIE1_pCurrentTDPtr
    2538:	01006c04 	movi	r4,432
    253c:	01414004 	movi	r5,1280
    2540:	0003be80 	call	3be8 <UsbWrite>
    //usleep(10*1000);
   
    while (!(IORD(CY7C67200_BASE,HPI_STATUS) & HPI_STATUS_SIE1msg_FLAG) )  //read sie1 msg register
    2544:	00004906 	br	266c <main+0x2410>
    {
        IOWR(CY7C67200_BASE,HPI_ADDR,0x0500); //the start address       
    2548:	00c14004 	movi	r3,1280
    254c:	00824034 	movhi	r2,2304
    2550:	10800a04 	addi	r2,r2,40
    2554:	10c00035 	stwio	r3,0(r2)
        IOWR(CY7C67200_BASE,HPI_DATA,0x050C); 
    2558:	00c14304 	movi	r3,1292
    255c:	00824034 	movhi	r2,2304
    2560:	10800804 	addi	r2,r2,32
    2564:	10c00035 	stwio	r3,0(r2)
        IOWR(CY7C67200_BASE,HPI_DATA,0x0008); //4 port number
    2568:	00c00204 	movi	r3,8
    256c:	00824034 	movhi	r2,2304
    2570:	10800804 	addi	r2,r2,32
    2574:	10c00035 	stwio	r3,0(r2)
        IOWR(CY7C67200_BASE,HPI_DATA,0x02D0);
    2578:	00c0b404 	movi	r3,720
    257c:	00824034 	movhi	r2,2304
    2580:	10800804 	addi	r2,r2,32
    2584:	10c00035 	stwio	r3,0(r2)
        IOWR(CY7C67200_BASE,HPI_DATA,0x0001);
    2588:	00c00044 	movi	r3,1
    258c:	00824034 	movhi	r2,2304
    2590:	10800804 	addi	r2,r2,32
    2594:	10c00035 	stwio	r3,0(r2)
        IOWR(CY7C67200_BASE,HPI_DATA,0x0013);
    2598:	00c004c4 	movi	r3,19
    259c:	00824034 	movhi	r2,2304
    25a0:	10800804 	addi	r2,r2,32
    25a4:	10c00035 	stwio	r3,0(r2)
        IOWR(CY7C67200_BASE,HPI_DATA,0x0514);
    25a8:	00c14504 	movi	r3,1300
    25ac:	00824034 	movhi	r2,2304
    25b0:	10800804 	addi	r2,r2,32
    25b4:	10c00035 	stwio	r3,0(r2)
    
        //td content 4 bytes
        IOWR(CY7C67200_BASE,HPI_DATA,0x0A21);
    25b8:	00c28844 	movi	r3,2593
    25bc:	00824034 	movhi	r2,2304
    25c0:	10800804 	addi	r2,r2,32
    25c4:	10c00035 	stwio	r3,0(r2)
        IOWR(CY7C67200_BASE,HPI_DATA,0x0000);//device address   
    25c8:	0007883a 	mov	r3,zero
    25cc:	00824034 	movhi	r2,2304
    25d0:	10800804 	addi	r2,r2,32
    25d4:	10c00035 	stwio	r3,0(r2)
        IOWR(CY7C67200_BASE,HPI_DATA,0x0000);
    25d8:	0007883a 	mov	r3,zero
    25dc:	00824034 	movhi	r2,2304
    25e0:	10800804 	addi	r2,r2,32
    25e4:	10c00035 	stwio	r3,0(r2)
        IOWR(CY7C67200_BASE,HPI_DATA,0x0000);
    25e8:	0007883a 	mov	r3,zero
    25ec:	00824034 	movhi	r2,2304
    25f0:	10800804 	addi	r2,r2,32
    25f4:	10c00035 	stwio	r3,0(r2)
        //in packet
        IOWR(CY7C67200_BASE,HPI_DATA,0x0000); //don't care
    25f8:	0007883a 	mov	r3,zero
    25fc:	00824034 	movhi	r2,2304
    2600:	10800804 	addi	r2,r2,32
    2604:	10c00035 	stwio	r3,0(r2)
        IOWR(CY7C67200_BASE,HPI_DATA,0x0000);//port number
    2608:	0007883a 	mov	r3,zero
    260c:	00824034 	movhi	r2,2304
    2610:	10800804 	addi	r2,r2,32
    2614:	10c00035 	stwio	r3,0(r2)
        IOWR(CY7C67200_BASE,HPI_DATA,0x0290);//device address
    2618:	00c0a404 	movi	r3,656
    261c:	00824034 	movhi	r2,2304
    2620:	10800804 	addi	r2,r2,32
    2624:	10c00035 	stwio	r3,0(r2)
        IOWR(CY7C67200_BASE,HPI_DATA,0x0041); //data 1
    2628:	00c01044 	movi	r3,65
    262c:	00824034 	movhi	r2,2304
    2630:	10800804 	addi	r2,r2,32
    2634:	10c00035 	stwio	r3,0(r2)
        IOWR(CY7C67200_BASE,HPI_DATA,0x0013);
    2638:	00c004c4 	movi	r3,19
    263c:	00824034 	movhi	r2,2304
    2640:	10800804 	addi	r2,r2,32
    2644:	10c00035 	stwio	r3,0(r2)
        IOWR(CY7C67200_BASE,HPI_DATA,0x0000);
    2648:	0007883a 	mov	r3,zero
    264c:	00824034 	movhi	r2,2304
    2650:	10800804 	addi	r2,r2,32
    2654:	10c00035 	stwio	r3,0(r2)
        
        UsbWrite(HUSB_SIE1_pCurrentTDPtr,0x0500); //HUSB_SIE1_pCurrentTDPtr
    2658:	01006c04 	movi	r4,432
    265c:	01414004 	movi	r5,1280
    2660:	0003be80 	call	3be8 <UsbWrite>
        usleep(10*1000);
    2664:	0109c404 	movi	r4,10000
    2668:	00108ec0 	call	108ec <usleep>
    IOWR(CY7C67200_BASE,HPI_DATA,0x0000);
     
    UsbWrite(HUSB_SIE1_pCurrentTDPtr,0x0500); //HUSB_SIE1_pCurrentTDPtr
    //usleep(10*1000);
   
    while (!(IORD(CY7C67200_BASE,HPI_STATUS) & HPI_STATUS_SIE1msg_FLAG) )  //read sie1 msg register
    266c:	00824034 	movhi	r2,2304
    2670:	10800b04 	addi	r2,r2,44
    2674:	10800037 	ldwio	r2,0(r2)
    2678:	1080040c 	andi	r2,r2,16
    267c:	103fb226 	beq	r2,zero,2548 <__alt_mem_sram+0xf7e02548>
        
        UsbWrite(HUSB_SIE1_pCurrentTDPtr,0x0500); //HUSB_SIE1_pCurrentTDPtr
        usleep(10*1000);
    }
    
    usb_ctl_val = UsbRead(HPI_SIE1_MSG_ADR);
    2680:	01005104 	movi	r4,324
    2684:	0003c340 	call	3c34 <UsbRead>
    2688:	e0bff80d 	sth	r2,-32(fp)
    UsbWrite(HPI_SIE1_MSG_ADR, 0);
    268c:	01005104 	movi	r4,324
    2690:	000b883a 	mov	r5,zero
    2694:	0003be80 	call	3be8 <UsbWrite>
    while (usb_ctl_val != 0x1000)  //read sie1 msg register
    2698:	00000d06 	br	26d0 <main+0x2474>
    {
       if(usb_ctl_val == 0x000)
    269c:	e0bff80b 	ldhu	r2,-32(fp)
    26a0:	10000526 	beq	r2,zero,26b8 <main+0x245c>
       {
       }
       else
       {
        printf("[SIE1 MSG]:SIE 1 msg reg is %x\n",usb_ctl_val);
    26a4:	e0bff80b 	ldhu	r2,-32(fp)
    26a8:	01000074 	movhi	r4,1
    26ac:	210bb804 	addi	r4,r4,12000
    26b0:	100b883a 	mov	r5,r2
    26b4:	0003d5c0 	call	3d5c <printf>
       }
       usb_ctl_val = UsbRead(HPI_SIE1_MSG_ADR);
    26b8:	01005104 	movi	r4,324
    26bc:	0003c340 	call	3c34 <UsbRead>
    26c0:	e0bff80d 	sth	r2,-32(fp)
       UsbWrite(HPI_SIE1_MSG_ADR, 0);
    26c4:	01005104 	movi	r4,324
    26c8:	000b883a 	mov	r5,zero
    26cc:	0003be80 	call	3be8 <UsbWrite>
        usleep(10*1000);
    }
    
    usb_ctl_val = UsbRead(HPI_SIE1_MSG_ADR);
    UsbWrite(HPI_SIE1_MSG_ADR, 0);
    while (usb_ctl_val != 0x1000)  //read sie1 msg register
    26d0:	e0bff80b 	ldhu	r2,-32(fp)
    26d4:	10840018 	cmpnei	r2,r2,4096
    26d8:	103ff01e 	bne	r2,zero,269c <__alt_mem_sram+0xf7e0269c>
       usb_ctl_val = UsbRead(HPI_SIE1_MSG_ADR);
       UsbWrite(HPI_SIE1_MSG_ADR, 0);
      
    }

    IOWR(CY7C67200_BASE,HPI_ADDR,0x0506);
    26dc:	00c14184 	movi	r3,1286
    26e0:	00824034 	movhi	r2,2304
    26e4:	10800a04 	addi	r2,r2,40
    26e8:	10c00035 	stwio	r3,0(r2)
    printf("[ENUM PROCESS]:step 8 TD Status Byte is %x\n",IORD(CY7C67200_BASE,HPI_DATA));
    26ec:	00824034 	movhi	r2,2304
    26f0:	10800804 	addi	r2,r2,32
    26f4:	10800037 	ldwio	r2,0(r2)
    26f8:	01000074 	movhi	r4,1
    26fc:	210bc004 	addi	r4,r4,12032
    2700:	100b883a 	mov	r5,r2
    2704:	0003d5c0 	call	3d5c <printf>
    
    IOWR(CY7C67200_BASE,HPI_ADDR,0x0508);
    2708:	00c14204 	movi	r3,1288
    270c:	00824034 	movhi	r2,2304
    2710:	10800a04 	addi	r2,r2,40
    2714:	10c00035 	stwio	r3,0(r2)
    usb_ctl_val = IORD(CY7C67200_BASE,HPI_DATA);
    2718:	00824034 	movhi	r2,2304
    271c:	10800804 	addi	r2,r2,32
    2720:	10800037 	ldwio	r2,0(r2)
    2724:	e0bff80d 	sth	r2,-32(fp)
    printf("[ENUM PROCESS]:step 8 TD Control Byte is %x\n",usb_ctl_val);
    2728:	e0bff80b 	ldhu	r2,-32(fp)
    272c:	01000074 	movhi	r4,1
    2730:	210bcb04 	addi	r4,r4,12076
    2734:	100b883a 	mov	r5,r2
    2738:	0003d5c0 	call	3d5c <printf>
    while (usb_ctl_val != 0x03) 
    273c:	00001906 	br	27a4 <main+0x2548>
    {
       IORD(CY7C67200_BASE,HPI_STATUS);
    2740:	00824034 	movhi	r2,2304
    2744:	10800b04 	addi	r2,r2,44
    2748:	10800037 	ldwio	r2,0(r2)
       if(UsbRead(HPI_SIE1_MSG_ADR) == 0x1000)
    274c:	01005104 	movi	r4,324
    2750:	0003c340 	call	3c34 <UsbRead>
    2754:	10bfffcc 	andi	r2,r2,65535
    2758:	10840018 	cmpnei	r2,r2,4096
    275c:	1000091e 	bne	r2,zero,2784 <main+0x2528>
       {
           UsbWrite(HPI_SIE1_MSG_ADR, 0);
    2760:	01005104 	movi	r4,324
    2764:	000b883a 	mov	r5,zero
    2768:	0003be80 	call	3be8 <UsbWrite>
           
        
           while (!(IORD(CY7C67200_BASE,HPI_STATUS) & HPI_STATUS_SIE1msg_FLAG) )  //read sie1 msg register
    276c:	0001883a 	nop
    2770:	00824034 	movhi	r2,2304
    2774:	10800b04 	addi	r2,r2,44
    2778:	10800037 	ldwio	r2,0(r2)
    277c:	1080040c 	andi	r2,r2,16
    2780:	103ffb26 	beq	r2,zero,2770 <__alt_mem_sram+0xf7e02770>
           {
           }
        }
           //usleep(1000);
           IOWR(CY7C67200_BASE,HPI_ADDR,0x0508);
    2784:	00c14204 	movi	r3,1288
    2788:	00824034 	movhi	r2,2304
    278c:	10800a04 	addi	r2,r2,40
    2790:	10c00035 	stwio	r3,0(r2)
           usb_ctl_val = IORD(CY7C67200_BASE,HPI_DATA); 
    2794:	00824034 	movhi	r2,2304
    2798:	10800804 	addi	r2,r2,32
    279c:	10800037 	ldwio	r2,0(r2)
    27a0:	e0bff80d 	sth	r2,-32(fp)
    printf("[ENUM PROCESS]:step 8 TD Status Byte is %x\n",IORD(CY7C67200_BASE,HPI_DATA));
    
    IOWR(CY7C67200_BASE,HPI_ADDR,0x0508);
    usb_ctl_val = IORD(CY7C67200_BASE,HPI_DATA);
    printf("[ENUM PROCESS]:step 8 TD Control Byte is %x\n",usb_ctl_val);
    while (usb_ctl_val != 0x03) 
    27a4:	e0bff80b 	ldhu	r2,-32(fp)
    27a8:	108000d8 	cmpnei	r2,r2,3
    27ac:	103fe41e 	bne	r2,zero,2740 <__alt_mem_sram+0xf7e02740>
           IOWR(CY7C67200_BASE,HPI_ADDR,0x0508);
           usb_ctl_val = IORD(CY7C67200_BASE,HPI_DATA); 
    }    
    
    
    printf("------------[ENUM PROCESS]:classe request out pass!-------------------\n");
    27b0:	01000074 	movhi	r4,1
    27b4:	210bd704 	addi	r4,r4,12124
    27b8:	0003e500 	call	3e50 <puts>
    
    //----------------------------------get descriptor(class 0x21) request out --------------------------------//
    //the starting address
    IOWR(CY7C67200_BASE,HPI_ADDR,0x0500); //the start address       
    27bc:	00c14004 	movi	r3,1280
    27c0:	00824034 	movhi	r2,2304
    27c4:	10800a04 	addi	r2,r2,40
    27c8:	10c00035 	stwio	r3,0(r2)
    IOWR(CY7C67200_BASE,HPI_DATA,0x050C); 
    27cc:	00c14304 	movi	r3,1292
    27d0:	00824034 	movhi	r2,2304
    27d4:	10800804 	addi	r2,r2,32
    27d8:	10c00035 	stwio	r3,0(r2)
    IOWR(CY7C67200_BASE,HPI_DATA,0x0008); //4 port number
    27dc:	00c00204 	movi	r3,8
    27e0:	00824034 	movhi	r2,2304
    27e4:	10800804 	addi	r2,r2,32
    27e8:	10c00035 	stwio	r3,0(r2)
    IOWR(CY7C67200_BASE,HPI_DATA,0x02D0); //port address
    27ec:	00c0b404 	movi	r3,720
    27f0:	00824034 	movhi	r2,2304
    27f4:	10800804 	addi	r2,r2,32
    27f8:	10c00035 	stwio	r3,0(r2)
    IOWR(CY7C67200_BASE,HPI_DATA,0x0001);
    27fc:	00c00044 	movi	r3,1
    2800:	00824034 	movhi	r2,2304
    2804:	10800804 	addi	r2,r2,32
    2808:	10c00035 	stwio	r3,0(r2)
    IOWR(CY7C67200_BASE,HPI_DATA,0x0013);
    280c:	00c004c4 	movi	r3,19
    2810:	00824034 	movhi	r2,2304
    2814:	10800804 	addi	r2,r2,32
    2818:	10c00035 	stwio	r3,0(r2)
    IOWR(CY7C67200_BASE,HPI_DATA,0x0514);
    281c:	00c14504 	movi	r3,1300
    2820:	00824034 	movhi	r2,2304
    2824:	10800804 	addi	r2,r2,32
    2828:	10c00035 	stwio	r3,0(r2)
    
    //td content 4 bytes
    IOWR(CY7C67200_BASE,HPI_DATA,0x0681);//c
    282c:	00c1a044 	movi	r3,1665
    2830:	00824034 	movhi	r2,2304
    2834:	10800804 	addi	r2,r2,32
    2838:	10c00035 	stwio	r3,0(r2)
    IOWR(CY7C67200_BASE,HPI_DATA,0x2100);//e //config 
    283c:	00c84004 	movi	r3,8448
    2840:	00824034 	movhi	r2,2304
    2844:	10800804 	addi	r2,r2,32
    2848:	10c00035 	stwio	r3,0(r2)
    IOWR(CY7C67200_BASE,HPI_DATA,0x0000);//0
    284c:	0007883a 	mov	r3,zero
    2850:	00824034 	movhi	r2,2304
    2854:	10800804 	addi	r2,r2,32
    2858:	10c00035 	stwio	r3,0(r2)
    IOWR(CY7C67200_BASE,HPI_DATA,0x007B);//2
    285c:	00c01ec4 	movi	r3,123
    2860:	00824034 	movhi	r2,2304
    2864:	10800804 	addi	r2,r2,32
    2868:	10c00035 	stwio	r3,0(r2)
    
    //data phase IN-1
    IOWR(CY7C67200_BASE,HPI_DATA,0x0544); //514
    286c:	00c15104 	movi	r3,1348
    2870:	00824034 	movhi	r2,2304
    2874:	10800804 	addi	r2,r2,32
    2878:	10c00035 	stwio	r3,0(r2)
    IOWR(CY7C67200_BASE,HPI_DATA,0x0008);//6
    287c:	00c00204 	movi	r3,8
    2880:	00824034 	movhi	r2,2304
    2884:	10800804 	addi	r2,r2,32
    2888:	10c00035 	stwio	r3,0(r2)
    IOWR(CY7C67200_BASE,HPI_DATA,0x0290);//8
    288c:	00c0a404 	movi	r3,656
    2890:	00824034 	movhi	r2,2304
    2894:	10800804 	addi	r2,r2,32
    2898:	10c00035 	stwio	r3,0(r2)
    IOWR(CY7C67200_BASE,HPI_DATA,0x0041);//a
    289c:	00c01044 	movi	r3,65
    28a0:	00824034 	movhi	r2,2304
    28a4:	10800804 	addi	r2,r2,32
    28a8:	10c00035 	stwio	r3,0(r2)
    IOWR(CY7C67200_BASE,HPI_DATA,0x0013);//c
    28ac:	00c004c4 	movi	r3,19
    28b0:	00824034 	movhi	r2,2304
    28b4:	10800804 	addi	r2,r2,32
    28b8:	10c00035 	stwio	r3,0(r2)
    IOWR(CY7C67200_BASE,HPI_DATA,0x0520);//e
    28bc:	00c14804 	movi	r3,1312
    28c0:	00824034 	movhi	r2,2304
    28c4:	10800804 	addi	r2,r2,32
    28c8:	10c00035 	stwio	r3,0(r2)
        
    //status phase
    IOWR(CY7C67200_BASE,HPI_DATA,0x0000); //52c
    28cc:	0007883a 	mov	r3,zero
    28d0:	00824034 	movhi	r2,2304
    28d4:	10800804 	addi	r2,r2,32
    28d8:	10c00035 	stwio	r3,0(r2)
    IOWR(CY7C67200_BASE,HPI_DATA,0x0000);//e
    28dc:	0007883a 	mov	r3,zero
    28e0:	00824034 	movhi	r2,2304
    28e4:	10800804 	addi	r2,r2,32
    28e8:	10c00035 	stwio	r3,0(r2)
    IOWR(CY7C67200_BASE,HPI_DATA,0x0210);//530
    28ec:	00c08404 	movi	r3,528
    28f0:	00824034 	movhi	r2,2304
    28f4:	10800804 	addi	r2,r2,32
    28f8:	10c00035 	stwio	r3,0(r2)
    IOWR(CY7C67200_BASE,HPI_DATA,0x0041);//2
    28fc:	00c01044 	movi	r3,65
    2900:	00824034 	movhi	r2,2304
    2904:	10800804 	addi	r2,r2,32
    2908:	10c00035 	stwio	r3,0(r2)
    IOWR(CY7C67200_BASE,HPI_DATA,0x0013);//4
    290c:	00c004c4 	movi	r3,19
    2910:	00824034 	movhi	r2,2304
    2914:	10800804 	addi	r2,r2,32
    2918:	10c00035 	stwio	r3,0(r2)
    IOWR(CY7C67200_BASE,HPI_DATA,0x0000);//6
    291c:	0007883a 	mov	r3,zero
    2920:	00824034 	movhi	r2,2304
    2924:	10800804 	addi	r2,r2,32
    2928:	10c00035 	stwio	r3,0(r2)
     
    UsbWrite(HUSB_SIE1_pCurrentTDPtr,0x0500); //HUSB_SIE1_pCurrentTDPtr
    292c:	01006c04 	movi	r4,432
    2930:	01414004 	movi	r5,1280
    2934:	0003be80 	call	3be8 <UsbWrite>
    //usleep(10*1000);
   
    while (!(IORD(CY7C67200_BASE,HPI_STATUS) & HPI_STATUS_SIE1msg_FLAG) )  //read sie1 msg register
    2938:	00006106 	br	2ac0 <main+0x2864>
    {
    IOWR(CY7C67200_BASE,HPI_ADDR,0x0500); //the start address       
    293c:	00c14004 	movi	r3,1280
    2940:	00824034 	movhi	r2,2304
    2944:	10800a04 	addi	r2,r2,40
    2948:	10c00035 	stwio	r3,0(r2)
    IOWR(CY7C67200_BASE,HPI_DATA,0x050C); 
    294c:	00c14304 	movi	r3,1292
    2950:	00824034 	movhi	r2,2304
    2954:	10800804 	addi	r2,r2,32
    2958:	10c00035 	stwio	r3,0(r2)
    IOWR(CY7C67200_BASE,HPI_DATA,0x0008); //4 port number
    295c:	00c00204 	movi	r3,8
    2960:	00824034 	movhi	r2,2304
    2964:	10800804 	addi	r2,r2,32
    2968:	10c00035 	stwio	r3,0(r2)
    IOWR(CY7C67200_BASE,HPI_DATA,0x02D0); //port address
    296c:	00c0b404 	movi	r3,720
    2970:	00824034 	movhi	r2,2304
    2974:	10800804 	addi	r2,r2,32
    2978:	10c00035 	stwio	r3,0(r2)
    IOWR(CY7C67200_BASE,HPI_DATA,0x0001);
    297c:	00c00044 	movi	r3,1
    2980:	00824034 	movhi	r2,2304
    2984:	10800804 	addi	r2,r2,32
    2988:	10c00035 	stwio	r3,0(r2)
    IOWR(CY7C67200_BASE,HPI_DATA,0x0013);
    298c:	00c004c4 	movi	r3,19
    2990:	00824034 	movhi	r2,2304
    2994:	10800804 	addi	r2,r2,32
    2998:	10c00035 	stwio	r3,0(r2)
    IOWR(CY7C67200_BASE,HPI_DATA,0x0514);
    299c:	00c14504 	movi	r3,1300
    29a0:	00824034 	movhi	r2,2304
    29a4:	10800804 	addi	r2,r2,32
    29a8:	10c00035 	stwio	r3,0(r2)
    
    //td content 4 bytes
    IOWR(CY7C67200_BASE,HPI_DATA,0x0681);//c
    29ac:	00c1a044 	movi	r3,1665
    29b0:	00824034 	movhi	r2,2304
    29b4:	10800804 	addi	r2,r2,32
    29b8:	10c00035 	stwio	r3,0(r2)
    IOWR(CY7C67200_BASE,HPI_DATA,0x2100);//e //config 
    29bc:	00c84004 	movi	r3,8448
    29c0:	00824034 	movhi	r2,2304
    29c4:	10800804 	addi	r2,r2,32
    29c8:	10c00035 	stwio	r3,0(r2)
    IOWR(CY7C67200_BASE,HPI_DATA,0x0000);//0
    29cc:	0007883a 	mov	r3,zero
    29d0:	00824034 	movhi	r2,2304
    29d4:	10800804 	addi	r2,r2,32
    29d8:	10c00035 	stwio	r3,0(r2)
    IOWR(CY7C67200_BASE,HPI_DATA,0x007B);//2
    29dc:	00c01ec4 	movi	r3,123
    29e0:	00824034 	movhi	r2,2304
    29e4:	10800804 	addi	r2,r2,32
    29e8:	10c00035 	stwio	r3,0(r2)
    
    //data phase IN-1
    IOWR(CY7C67200_BASE,HPI_DATA,0x0544); //514
    29ec:	00c15104 	movi	r3,1348
    29f0:	00824034 	movhi	r2,2304
    29f4:	10800804 	addi	r2,r2,32
    29f8:	10c00035 	stwio	r3,0(r2)
    IOWR(CY7C67200_BASE,HPI_DATA,0x0008);//6
    29fc:	00c00204 	movi	r3,8
    2a00:	00824034 	movhi	r2,2304
    2a04:	10800804 	addi	r2,r2,32
    2a08:	10c00035 	stwio	r3,0(r2)
    IOWR(CY7C67200_BASE,HPI_DATA,0x0290);//8
    2a0c:	00c0a404 	movi	r3,656
    2a10:	00824034 	movhi	r2,2304
    2a14:	10800804 	addi	r2,r2,32
    2a18:	10c00035 	stwio	r3,0(r2)
    IOWR(CY7C67200_BASE,HPI_DATA,0x0041);//a
    2a1c:	00c01044 	movi	r3,65
    2a20:	00824034 	movhi	r2,2304
    2a24:	10800804 	addi	r2,r2,32
    2a28:	10c00035 	stwio	r3,0(r2)
    IOWR(CY7C67200_BASE,HPI_DATA,0x0013);//c
    2a2c:	00c004c4 	movi	r3,19
    2a30:	00824034 	movhi	r2,2304
    2a34:	10800804 	addi	r2,r2,32
    2a38:	10c00035 	stwio	r3,0(r2)
    IOWR(CY7C67200_BASE,HPI_DATA,0x0520);//e
    2a3c:	00c14804 	movi	r3,1312
    2a40:	00824034 	movhi	r2,2304
    2a44:	10800804 	addi	r2,r2,32
    2a48:	10c00035 	stwio	r3,0(r2)
        
    //status phase
    IOWR(CY7C67200_BASE,HPI_DATA,0x0000); //52c
    2a4c:	0007883a 	mov	r3,zero
    2a50:	00824034 	movhi	r2,2304
    2a54:	10800804 	addi	r2,r2,32
    2a58:	10c00035 	stwio	r3,0(r2)
    IOWR(CY7C67200_BASE,HPI_DATA,0x0000);//e
    2a5c:	0007883a 	mov	r3,zero
    2a60:	00824034 	movhi	r2,2304
    2a64:	10800804 	addi	r2,r2,32
    2a68:	10c00035 	stwio	r3,0(r2)
    IOWR(CY7C67200_BASE,HPI_DATA,0x0210);//530
    2a6c:	00c08404 	movi	r3,528
    2a70:	00824034 	movhi	r2,2304
    2a74:	10800804 	addi	r2,r2,32
    2a78:	10c00035 	stwio	r3,0(r2)
    IOWR(CY7C67200_BASE,HPI_DATA,0x0041);//2
    2a7c:	00c01044 	movi	r3,65
    2a80:	00824034 	movhi	r2,2304
    2a84:	10800804 	addi	r2,r2,32
    2a88:	10c00035 	stwio	r3,0(r2)
    IOWR(CY7C67200_BASE,HPI_DATA,0x0013);//4
    2a8c:	00c004c4 	movi	r3,19
    2a90:	00824034 	movhi	r2,2304
    2a94:	10800804 	addi	r2,r2,32
    2a98:	10c00035 	stwio	r3,0(r2)
    IOWR(CY7C67200_BASE,HPI_DATA,0x0000);//6
    2a9c:	0007883a 	mov	r3,zero
    2aa0:	00824034 	movhi	r2,2304
    2aa4:	10800804 	addi	r2,r2,32
    2aa8:	10c00035 	stwio	r3,0(r2)
        
    UsbWrite(HUSB_SIE1_pCurrentTDPtr,0x0500); //HUSB_SIE1_pCurrentTDPtr
    2aac:	01006c04 	movi	r4,432
    2ab0:	01414004 	movi	r5,1280
    2ab4:	0003be80 	call	3be8 <UsbWrite>
    usleep(10*1000);
    2ab8:	0109c404 	movi	r4,10000
    2abc:	00108ec0 	call	108ec <usleep>
    IOWR(CY7C67200_BASE,HPI_DATA,0x0000);//6
     
    UsbWrite(HUSB_SIE1_pCurrentTDPtr,0x0500); //HUSB_SIE1_pCurrentTDPtr
    //usleep(10*1000);
   
    while (!(IORD(CY7C67200_BASE,HPI_STATUS) & HPI_STATUS_SIE1msg_FLAG) )  //read sie1 msg register
    2ac0:	00824034 	movhi	r2,2304
    2ac4:	10800b04 	addi	r2,r2,44
    2ac8:	10800037 	ldwio	r2,0(r2)
    2acc:	1080040c 	andi	r2,r2,16
    2ad0:	103f9a26 	beq	r2,zero,293c <__alt_mem_sram+0xf7e0293c>
        
    UsbWrite(HUSB_SIE1_pCurrentTDPtr,0x0500); //HUSB_SIE1_pCurrentTDPtr
    usleep(10*1000);
    }
    
    usb_ctl_val = UsbRead(HPI_SIE1_MSG_ADR);
    2ad4:	01005104 	movi	r4,324
    2ad8:	0003c340 	call	3c34 <UsbRead>
    2adc:	e0bff80d 	sth	r2,-32(fp)
    UsbWrite(HPI_SIE1_MSG_ADR, 0);
    2ae0:	01005104 	movi	r4,324
    2ae4:	000b883a 	mov	r5,zero
    2ae8:	0003be80 	call	3be8 <UsbWrite>
    while (usb_ctl_val != 0x1000)  //read sie1 msg register
    2aec:	00000d06 	br	2b24 <main+0x28c8>
    {
       if(usb_ctl_val == 0x000)
    2af0:	e0bff80b 	ldhu	r2,-32(fp)
    2af4:	10000526 	beq	r2,zero,2b0c <main+0x28b0>
       {
       }
       else
       {
        printf("[SIE MSG]:SIE 1 msg reg is %x\n",usb_ctl_val);
    2af8:	e0bff80b 	ldhu	r2,-32(fp)
    2afc:	01000074 	movhi	r4,1
    2b00:	210be904 	addi	r4,r4,12196
    2b04:	100b883a 	mov	r5,r2
    2b08:	0003d5c0 	call	3d5c <printf>
       }
       usb_ctl_val = UsbRead(HPI_SIE1_MSG_ADR);
    2b0c:	01005104 	movi	r4,324
    2b10:	0003c340 	call	3c34 <UsbRead>
    2b14:	e0bff80d 	sth	r2,-32(fp)
       UsbWrite(HPI_SIE1_MSG_ADR, 0);
    2b18:	01005104 	movi	r4,324
    2b1c:	000b883a 	mov	r5,zero
    2b20:	0003be80 	call	3be8 <UsbWrite>
    usleep(10*1000);
    }
    
    usb_ctl_val = UsbRead(HPI_SIE1_MSG_ADR);
    UsbWrite(HPI_SIE1_MSG_ADR, 0);
    while (usb_ctl_val != 0x1000)  //read sie1 msg register
    2b24:	e0bff80b 	ldhu	r2,-32(fp)
    2b28:	10840018 	cmpnei	r2,r2,4096
    2b2c:	103ff01e 	bne	r2,zero,2af0 <__alt_mem_sram+0xf7e02af0>
       usb_ctl_val = UsbRead(HPI_SIE1_MSG_ADR);
       UsbWrite(HPI_SIE1_MSG_ADR, 0);
      
    }

    IOWR(CY7C67200_BASE,HPI_ADDR,0x0506);
    2b30:	00c14184 	movi	r3,1286
    2b34:	00824034 	movhi	r2,2304
    2b38:	10800a04 	addi	r2,r2,40
    2b3c:	10c00035 	stwio	r3,0(r2)
    printf("[ENUM PROCESS]:step 8 TD Status Byte is %x\n",IORD(CY7C67200_BASE,HPI_DATA));
    2b40:	00824034 	movhi	r2,2304
    2b44:	10800804 	addi	r2,r2,32
    2b48:	10800037 	ldwio	r2,0(r2)
    2b4c:	01000074 	movhi	r4,1
    2b50:	210bc004 	addi	r4,r4,12032
    2b54:	100b883a 	mov	r5,r2
    2b58:	0003d5c0 	call	3d5c <printf>
    
    IOWR(CY7C67200_BASE,HPI_ADDR,0x0508);
    2b5c:	00c14204 	movi	r3,1288
    2b60:	00824034 	movhi	r2,2304
    2b64:	10800a04 	addi	r2,r2,40
    2b68:	10c00035 	stwio	r3,0(r2)
    usb_ctl_val = IORD(CY7C67200_BASE,HPI_DATA);
    2b6c:	00824034 	movhi	r2,2304
    2b70:	10800804 	addi	r2,r2,32
    2b74:	10800037 	ldwio	r2,0(r2)
    2b78:	e0bff80d 	sth	r2,-32(fp)
    printf("[ENUM PROCESS]:step 8 TD Control Byte is %x\n",usb_ctl_val);
    2b7c:	e0bff80b 	ldhu	r2,-32(fp)
    2b80:	01000074 	movhi	r4,1
    2b84:	210bcb04 	addi	r4,r4,12076
    2b88:	100b883a 	mov	r5,r2
    2b8c:	0003d5c0 	call	3d5c <printf>
    while (usb_ctl_val != 0x03) 
    2b90:	00001906 	br	2bf8 <main+0x299c>
    {
       IORD(CY7C67200_BASE,HPI_STATUS);
    2b94:	00824034 	movhi	r2,2304
    2b98:	10800b04 	addi	r2,r2,44
    2b9c:	10800037 	ldwio	r2,0(r2)
       if(UsbRead(HPI_SIE1_MSG_ADR) == 0x1000)
    2ba0:	01005104 	movi	r4,324
    2ba4:	0003c340 	call	3c34 <UsbRead>
    2ba8:	10bfffcc 	andi	r2,r2,65535
    2bac:	10840018 	cmpnei	r2,r2,4096
    2bb0:	1000091e 	bne	r2,zero,2bd8 <main+0x297c>
       {
           UsbWrite(HPI_SIE1_MSG_ADR, 0);
    2bb4:	01005104 	movi	r4,324
    2bb8:	000b883a 	mov	r5,zero
    2bbc:	0003be80 	call	3be8 <UsbWrite>
           
        
           while (!(IORD(CY7C67200_BASE,HPI_STATUS) & HPI_STATUS_SIE1msg_FLAG) )  //read sie1 msg register
    2bc0:	0001883a 	nop
    2bc4:	00824034 	movhi	r2,2304
    2bc8:	10800b04 	addi	r2,r2,44
    2bcc:	10800037 	ldwio	r2,0(r2)
    2bd0:	1080040c 	andi	r2,r2,16
    2bd4:	103ffb26 	beq	r2,zero,2bc4 <__alt_mem_sram+0xf7e02bc4>
           {
           }
        }
           //usleep(1000);
           IOWR(CY7C67200_BASE,HPI_ADDR,0x0508);
    2bd8:	00c14204 	movi	r3,1288
    2bdc:	00824034 	movhi	r2,2304
    2be0:	10800a04 	addi	r2,r2,40
    2be4:	10c00035 	stwio	r3,0(r2)
           usb_ctl_val = IORD(CY7C67200_BASE,HPI_DATA); 
    2be8:	00824034 	movhi	r2,2304
    2bec:	10800804 	addi	r2,r2,32
    2bf0:	10800037 	ldwio	r2,0(r2)
    2bf4:	e0bff80d 	sth	r2,-32(fp)
    printf("[ENUM PROCESS]:step 8 TD Status Byte is %x\n",IORD(CY7C67200_BASE,HPI_DATA));
    
    IOWR(CY7C67200_BASE,HPI_ADDR,0x0508);
    usb_ctl_val = IORD(CY7C67200_BASE,HPI_DATA);
    printf("[ENUM PROCESS]:step 8 TD Control Byte is %x\n",usb_ctl_val);
    while (usb_ctl_val != 0x03) 
    2bf8:	e0bff80b 	ldhu	r2,-32(fp)
    2bfc:	108000d8 	cmpnei	r2,r2,3
    2c00:	103fe41e 	bne	r2,zero,2b94 <__alt_mem_sram+0xf7e02b94>
           usb_ctl_val = IORD(CY7C67200_BASE,HPI_DATA); 
    }    
    
    
    
    printf("------------[ENUM PROCESS]:get descriptor (class 0x21) pass!-------------------\n");
    2c04:	01000074 	movhi	r4,1
    2c08:	210bf104 	addi	r4,r4,12228
    2c0c:	0003e500 	call	3e50 <puts>
    
    //-------------------------------get descriptor (class 0x22)-------------------------------------------//
    //the starting address
    IOWR(CY7C67200_BASE,HPI_ADDR,0x0500); //the start address       
    2c10:	00c14004 	movi	r3,1280
    2c14:	00824034 	movhi	r2,2304
    2c18:	10800a04 	addi	r2,r2,40
    2c1c:	10c00035 	stwio	r3,0(r2)
    IOWR(CY7C67200_BASE,HPI_DATA,0x050C); 
    2c20:	00c14304 	movi	r3,1292
    2c24:	00824034 	movhi	r2,2304
    2c28:	10800804 	addi	r2,r2,32
    2c2c:	10c00035 	stwio	r3,0(r2)
    IOWR(CY7C67200_BASE,HPI_DATA,0x0008); //4 port number
    2c30:	00c00204 	movi	r3,8
    2c34:	00824034 	movhi	r2,2304
    2c38:	10800804 	addi	r2,r2,32
    2c3c:	10c00035 	stwio	r3,0(r2)
    IOWR(CY7C67200_BASE,HPI_DATA,0x02D0); //device address
    2c40:	00c0b404 	movi	r3,720
    2c44:	00824034 	movhi	r2,2304
    2c48:	10800804 	addi	r2,r2,32
    2c4c:	10c00035 	stwio	r3,0(r2)
    IOWR(CY7C67200_BASE,HPI_DATA,0x0001);
    2c50:	00c00044 	movi	r3,1
    2c54:	00824034 	movhi	r2,2304
    2c58:	10800804 	addi	r2,r2,32
    2c5c:	10c00035 	stwio	r3,0(r2)
    IOWR(CY7C67200_BASE,HPI_DATA,0x0013);
    2c60:	00c004c4 	movi	r3,19
    2c64:	00824034 	movhi	r2,2304
    2c68:	10800804 	addi	r2,r2,32
    2c6c:	10c00035 	stwio	r3,0(r2)
    IOWR(CY7C67200_BASE,HPI_DATA,0x0514);
    2c70:	00c14504 	movi	r3,1300
    2c74:	00824034 	movhi	r2,2304
    2c78:	10800804 	addi	r2,r2,32
    2c7c:	10c00035 	stwio	r3,0(r2)
    
    //td content 4 bytes
    IOWR(CY7C67200_BASE,HPI_DATA,0x0681);//c
    2c80:	00c1a044 	movi	r3,1665
    2c84:	00824034 	movhi	r2,2304
    2c88:	10800804 	addi	r2,r2,32
    2c8c:	10c00035 	stwio	r3,0(r2)
    IOWR(CY7C67200_BASE,HPI_DATA,0x2200);//e //config 
    2c90:	00c88004 	movi	r3,8704
    2c94:	00824034 	movhi	r2,2304
    2c98:	10800804 	addi	r2,r2,32
    2c9c:	10c00035 	stwio	r3,0(r2)
    IOWR(CY7C67200_BASE,HPI_DATA,0x0000);//0
    2ca0:	0007883a 	mov	r3,zero
    2ca4:	00824034 	movhi	r2,2304
    2ca8:	10800804 	addi	r2,r2,32
    2cac:	10c00035 	stwio	r3,0(r2)
    IOWR(CY7C67200_BASE,HPI_DATA,0x007B);//2
    2cb0:	00c01ec4 	movi	r3,123
    2cb4:	00824034 	movhi	r2,2304
    2cb8:	10800804 	addi	r2,r2,32
    2cbc:	10c00035 	stwio	r3,0(r2)
    
    //data phase IN-1
    IOWR(CY7C67200_BASE,HPI_DATA,0x0580); //514
    2cc0:	00c16004 	movi	r3,1408
    2cc4:	00824034 	movhi	r2,2304
    2cc8:	10800804 	addi	r2,r2,32
    2ccc:	10c00035 	stwio	r3,0(r2)
    IOWR(CY7C67200_BASE,HPI_DATA,0x0008);//6
    2cd0:	00c00204 	movi	r3,8
    2cd4:	00824034 	movhi	r2,2304
    2cd8:	10800804 	addi	r2,r2,32
    2cdc:	10c00035 	stwio	r3,0(r2)
    IOWR(CY7C67200_BASE,HPI_DATA,0x0290);//8
    2ce0:	00c0a404 	movi	r3,656
    2ce4:	00824034 	movhi	r2,2304
    2ce8:	10800804 	addi	r2,r2,32
    2cec:	10c00035 	stwio	r3,0(r2)
    IOWR(CY7C67200_BASE,HPI_DATA,0x0041);//a
    2cf0:	00c01044 	movi	r3,65
    2cf4:	00824034 	movhi	r2,2304
    2cf8:	10800804 	addi	r2,r2,32
    2cfc:	10c00035 	stwio	r3,0(r2)
    IOWR(CY7C67200_BASE,HPI_DATA,0x0013);//c
    2d00:	00c004c4 	movi	r3,19
    2d04:	00824034 	movhi	r2,2304
    2d08:	10800804 	addi	r2,r2,32
    2d0c:	10c00035 	stwio	r3,0(r2)
    IOWR(CY7C67200_BASE,HPI_DATA,0x0520);//e
    2d10:	00c14804 	movi	r3,1312
    2d14:	00824034 	movhi	r2,2304
    2d18:	10800804 	addi	r2,r2,32
    2d1c:	10c00035 	stwio	r3,0(r2)
    
    //data phase IN-2
    IOWR(CY7C67200_BASE,HPI_DATA,0x0588); //520
    2d20:	00c16204 	movi	r3,1416
    2d24:	00824034 	movhi	r2,2304
    2d28:	10800804 	addi	r2,r2,32
    2d2c:	10c00035 	stwio	r3,0(r2)
    IOWR(CY7C67200_BASE,HPI_DATA,0x0008);//2
    2d30:	00c00204 	movi	r3,8
    2d34:	00824034 	movhi	r2,2304
    2d38:	10800804 	addi	r2,r2,32
    2d3c:	10c00035 	stwio	r3,0(r2)
    IOWR(CY7C67200_BASE,HPI_DATA,0x0290);//4
    2d40:	00c0a404 	movi	r3,656
    2d44:	00824034 	movhi	r2,2304
    2d48:	10800804 	addi	r2,r2,32
    2d4c:	10c00035 	stwio	r3,0(r2)
    IOWR(CY7C67200_BASE,HPI_DATA,0x0001);//6 //data0
    2d50:	00c00044 	movi	r3,1
    2d54:	00824034 	movhi	r2,2304
    2d58:	10800804 	addi	r2,r2,32
    2d5c:	10c00035 	stwio	r3,0(r2)
    IOWR(CY7C67200_BASE,HPI_DATA,0x0013);//8
    2d60:	00c004c4 	movi	r3,19
    2d64:	00824034 	movhi	r2,2304
    2d68:	10800804 	addi	r2,r2,32
    2d6c:	10c00035 	stwio	r3,0(r2)
    IOWR(CY7C67200_BASE,HPI_DATA,0x052c);//a
    2d70:	00c14b04 	movi	r3,1324
    2d74:	00824034 	movhi	r2,2304
    2d78:	10800804 	addi	r2,r2,32
    2d7c:	10c00035 	stwio	r3,0(r2)
    
    //data phase IN-3
    IOWR(CY7C67200_BASE,HPI_DATA,0x0590); //52c
    2d80:	00c16404 	movi	r3,1424
    2d84:	00824034 	movhi	r2,2304
    2d88:	10800804 	addi	r2,r2,32
    2d8c:	10c00035 	stwio	r3,0(r2)
    IOWR(CY7C67200_BASE,HPI_DATA,0x0008);//e
    2d90:	00c00204 	movi	r3,8
    2d94:	00824034 	movhi	r2,2304
    2d98:	10800804 	addi	r2,r2,32
    2d9c:	10c00035 	stwio	r3,0(r2)
    IOWR(CY7C67200_BASE,HPI_DATA,0x0290);//530
    2da0:	00c0a404 	movi	r3,656
    2da4:	00824034 	movhi	r2,2304
    2da8:	10800804 	addi	r2,r2,32
    2dac:	10c00035 	stwio	r3,0(r2)
    IOWR(CY7C67200_BASE,HPI_DATA,0x0041);//2
    2db0:	00c01044 	movi	r3,65
    2db4:	00824034 	movhi	r2,2304
    2db8:	10800804 	addi	r2,r2,32
    2dbc:	10c00035 	stwio	r3,0(r2)
    IOWR(CY7C67200_BASE,HPI_DATA,0x0013);//4
    2dc0:	00c004c4 	movi	r3,19
    2dc4:	00824034 	movhi	r2,2304
    2dc8:	10800804 	addi	r2,r2,32
    2dcc:	10c00035 	stwio	r3,0(r2)
    IOWR(CY7C67200_BASE,HPI_DATA,0x0538);//6
    2dd0:	00c14e04 	movi	r3,1336
    2dd4:	00824034 	movhi	r2,2304
    2dd8:	10800804 	addi	r2,r2,32
    2ddc:	10c00035 	stwio	r3,0(r2)
    
    //data phase IN-4
    IOWR(CY7C67200_BASE,HPI_DATA,0x0598); //538
    2de0:	00c16604 	movi	r3,1432
    2de4:	00824034 	movhi	r2,2304
    2de8:	10800804 	addi	r2,r2,32
    2dec:	10c00035 	stwio	r3,0(r2)
    IOWR(CY7C67200_BASE,HPI_DATA,0x0008);//a
    2df0:	00c00204 	movi	r3,8
    2df4:	00824034 	movhi	r2,2304
    2df8:	10800804 	addi	r2,r2,32
    2dfc:	10c00035 	stwio	r3,0(r2)
    IOWR(CY7C67200_BASE,HPI_DATA,0x0290);//c
    2e00:	00c0a404 	movi	r3,656
    2e04:	00824034 	movhi	r2,2304
    2e08:	10800804 	addi	r2,r2,32
    2e0c:	10c00035 	stwio	r3,0(r2)
    IOWR(CY7C67200_BASE,HPI_DATA,0x0001);//e //data0
    2e10:	00c00044 	movi	r3,1
    2e14:	00824034 	movhi	r2,2304
    2e18:	10800804 	addi	r2,r2,32
    2e1c:	10c00035 	stwio	r3,0(r2)
    IOWR(CY7C67200_BASE,HPI_DATA,0x0013);//540
    2e20:	00c004c4 	movi	r3,19
    2e24:	00824034 	movhi	r2,2304
    2e28:	10800804 	addi	r2,r2,32
    2e2c:	10c00035 	stwio	r3,0(r2)
    IOWR(CY7C67200_BASE,HPI_DATA,0x0544);//2
    2e30:	00c15104 	movi	r3,1348
    2e34:	00824034 	movhi	r2,2304
    2e38:	10800804 	addi	r2,r2,32
    2e3c:	10c00035 	stwio	r3,0(r2)
    
    //data phase IN-5
    IOWR(CY7C67200_BASE,HPI_DATA,0x05a0); //544
    2e40:	00c16804 	movi	r3,1440
    2e44:	00824034 	movhi	r2,2304
    2e48:	10800804 	addi	r2,r2,32
    2e4c:	10c00035 	stwio	r3,0(r2)
    IOWR(CY7C67200_BASE,HPI_DATA,0x0008);//6
    2e50:	00c00204 	movi	r3,8
    2e54:	00824034 	movhi	r2,2304
    2e58:	10800804 	addi	r2,r2,32
    2e5c:	10c00035 	stwio	r3,0(r2)
    IOWR(CY7C67200_BASE,HPI_DATA,0x0290);//8
    2e60:	00c0a404 	movi	r3,656
    2e64:	00824034 	movhi	r2,2304
    2e68:	10800804 	addi	r2,r2,32
    2e6c:	10c00035 	stwio	r3,0(r2)
    IOWR(CY7C67200_BASE,HPI_DATA,0x0041);//a //data1
    2e70:	00c01044 	movi	r3,65
    2e74:	00824034 	movhi	r2,2304
    2e78:	10800804 	addi	r2,r2,32
    2e7c:	10c00035 	stwio	r3,0(r2)
    IOWR(CY7C67200_BASE,HPI_DATA,0x0013);//c
    2e80:	00c004c4 	movi	r3,19
    2e84:	00824034 	movhi	r2,2304
    2e88:	10800804 	addi	r2,r2,32
    2e8c:	10c00035 	stwio	r3,0(r2)
    IOWR(CY7C67200_BASE,HPI_DATA,0x0550);//e
    2e90:	00c15404 	movi	r3,1360
    2e94:	00824034 	movhi	r2,2304
    2e98:	10800804 	addi	r2,r2,32
    2e9c:	10c00035 	stwio	r3,0(r2)
    
    //data phase IN-6
    IOWR(CY7C67200_BASE,HPI_DATA,0x05a8); //550
    2ea0:	00c16a04 	movi	r3,1448
    2ea4:	00824034 	movhi	r2,2304
    2ea8:	10800804 	addi	r2,r2,32
    2eac:	10c00035 	stwio	r3,0(r2)
    IOWR(CY7C67200_BASE,HPI_DATA,0x0008);//2
    2eb0:	00c00204 	movi	r3,8
    2eb4:	00824034 	movhi	r2,2304
    2eb8:	10800804 	addi	r2,r2,32
    2ebc:	10c00035 	stwio	r3,0(r2)
    IOWR(CY7C67200_BASE,HPI_DATA,0x0290);//4
    2ec0:	00c0a404 	movi	r3,656
    2ec4:	00824034 	movhi	r2,2304
    2ec8:	10800804 	addi	r2,r2,32
    2ecc:	10c00035 	stwio	r3,0(r2)
    IOWR(CY7C67200_BASE,HPI_DATA,0x0001);//6 //data0
    2ed0:	00c00044 	movi	r3,1
    2ed4:	00824034 	movhi	r2,2304
    2ed8:	10800804 	addi	r2,r2,32
    2edc:	10c00035 	stwio	r3,0(r2)
    IOWR(CY7C67200_BASE,HPI_DATA,0x0013);//8
    2ee0:	00c004c4 	movi	r3,19
    2ee4:	00824034 	movhi	r2,2304
    2ee8:	10800804 	addi	r2,r2,32
    2eec:	10c00035 	stwio	r3,0(r2)
    IOWR(CY7C67200_BASE,HPI_DATA,0x055c);//a
    2ef0:	00c15704 	movi	r3,1372
    2ef4:	00824034 	movhi	r2,2304
    2ef8:	10800804 	addi	r2,r2,32
    2efc:	10c00035 	stwio	r3,0(r2)
    
    //data phase IN-7
    IOWR(CY7C67200_BASE,HPI_DATA,0x05b0); //c
    2f00:	00c16c04 	movi	r3,1456
    2f04:	00824034 	movhi	r2,2304
    2f08:	10800804 	addi	r2,r2,32
    2f0c:	10c00035 	stwio	r3,0(r2)
    IOWR(CY7C67200_BASE,HPI_DATA,0x0008);//e
    2f10:	00c00204 	movi	r3,8
    2f14:	00824034 	movhi	r2,2304
    2f18:	10800804 	addi	r2,r2,32
    2f1c:	10c00035 	stwio	r3,0(r2)
    IOWR(CY7C67200_BASE,HPI_DATA,0x0290);//560
    2f20:	00c0a404 	movi	r3,656
    2f24:	00824034 	movhi	r2,2304
    2f28:	10800804 	addi	r2,r2,32
    2f2c:	10c00035 	stwio	r3,0(r2)
    IOWR(CY7C67200_BASE,HPI_DATA,0x0041);//2 //data1
    2f30:	00c01044 	movi	r3,65
    2f34:	00824034 	movhi	r2,2304
    2f38:	10800804 	addi	r2,r2,32
    2f3c:	10c00035 	stwio	r3,0(r2)
    IOWR(CY7C67200_BASE,HPI_DATA,0x0013);//4
    2f40:	00c004c4 	movi	r3,19
    2f44:	00824034 	movhi	r2,2304
    2f48:	10800804 	addi	r2,r2,32
    2f4c:	10c00035 	stwio	r3,0(r2)
    IOWR(CY7C67200_BASE,HPI_DATA,0x0568);//6
    2f50:	00c15a04 	movi	r3,1384
    2f54:	00824034 	movhi	r2,2304
    2f58:	10800804 	addi	r2,r2,32
    2f5c:	10c00035 	stwio	r3,0(r2)
    
    //data phase IN-8
    IOWR(CY7C67200_BASE,HPI_DATA,0x05b8); //8
    2f60:	00c16e04 	movi	r3,1464
    2f64:	00824034 	movhi	r2,2304
    2f68:	10800804 	addi	r2,r2,32
    2f6c:	10c00035 	stwio	r3,0(r2)
    IOWR(CY7C67200_BASE,HPI_DATA,0x0003);//a
    2f70:	00c000c4 	movi	r3,3
    2f74:	00824034 	movhi	r2,2304
    2f78:	10800804 	addi	r2,r2,32
    2f7c:	10c00035 	stwio	r3,0(r2)
    IOWR(CY7C67200_BASE,HPI_DATA,0x0290);//c
    2f80:	00c0a404 	movi	r3,656
    2f84:	00824034 	movhi	r2,2304
    2f88:	10800804 	addi	r2,r2,32
    2f8c:	10c00035 	stwio	r3,0(r2)
    IOWR(CY7C67200_BASE,HPI_DATA,0x0001);//e //data0
    2f90:	00c00044 	movi	r3,1
    2f94:	00824034 	movhi	r2,2304
    2f98:	10800804 	addi	r2,r2,32
    2f9c:	10c00035 	stwio	r3,0(r2)
    IOWR(CY7C67200_BASE,HPI_DATA,0x0013);//570
    2fa0:	00c004c4 	movi	r3,19
    2fa4:	00824034 	movhi	r2,2304
    2fa8:	10800804 	addi	r2,r2,32
    2fac:	10c00035 	stwio	r3,0(r2)
    IOWR(CY7C67200_BASE,HPI_DATA,0x0574);//2
    2fb0:	00c15d04 	movi	r3,1396
    2fb4:	00824034 	movhi	r2,2304
    2fb8:	10800804 	addi	r2,r2,32
    2fbc:	10c00035 	stwio	r3,0(r2)
    
    //status phase
    IOWR(CY7C67200_BASE,HPI_DATA,0x0000); //574
    2fc0:	0007883a 	mov	r3,zero
    2fc4:	00824034 	movhi	r2,2304
    2fc8:	10800804 	addi	r2,r2,32
    2fcc:	10c00035 	stwio	r3,0(r2)
    IOWR(CY7C67200_BASE,HPI_DATA,0x0000);//6
    2fd0:	0007883a 	mov	r3,zero
    2fd4:	00824034 	movhi	r2,2304
    2fd8:	10800804 	addi	r2,r2,32
    2fdc:	10c00035 	stwio	r3,0(r2)
    IOWR(CY7C67200_BASE,HPI_DATA,0x0210);//8
    2fe0:	00c08404 	movi	r3,528
    2fe4:	00824034 	movhi	r2,2304
    2fe8:	10800804 	addi	r2,r2,32
    2fec:	10c00035 	stwio	r3,0(r2)
    IOWR(CY7C67200_BASE,HPI_DATA,0x0041);//a
    2ff0:	00c01044 	movi	r3,65
    2ff4:	00824034 	movhi	r2,2304
    2ff8:	10800804 	addi	r2,r2,32
    2ffc:	10c00035 	stwio	r3,0(r2)
    IOWR(CY7C67200_BASE,HPI_DATA,0x0013);//c
    3000:	00c004c4 	movi	r3,19
    3004:	00824034 	movhi	r2,2304
    3008:	10800804 	addi	r2,r2,32
    300c:	10c00035 	stwio	r3,0(r2)
    IOWR(CY7C67200_BASE,HPI_DATA,0x0000);//e
    3010:	0007883a 	mov	r3,zero
    3014:	00824034 	movhi	r2,2304
    3018:	10800804 	addi	r2,r2,32
    301c:	10c00035 	stwio	r3,0(r2)
     
    UsbWrite(HUSB_SIE1_pCurrentTDPtr,0x0500); //HUSB_SIE1_pCurrentTDPtr
    3020:	01006c04 	movi	r4,432
    3024:	01414004 	movi	r5,1280
    3028:	0003be80 	call	3be8 <UsbWrite>
    
   //usleep(100*1000);
   //if no message
    while (!(IORD(CY7C67200_BASE,HPI_STATUS) & HPI_STATUS_SIE1msg_FLAG) )  //read sie1 msg register
    302c:	00010906 	br	3454 <main+0x31f8>
    {
    //the starting address
    IOWR(CY7C67200_BASE,HPI_ADDR,0x0500); //the start address       
    3030:	00c14004 	movi	r3,1280
    3034:	00824034 	movhi	r2,2304
    3038:	10800a04 	addi	r2,r2,40
    303c:	10c00035 	stwio	r3,0(r2)
    IOWR(CY7C67200_BASE,HPI_DATA,0x050C); 
    3040:	00c14304 	movi	r3,1292
    3044:	00824034 	movhi	r2,2304
    3048:	10800804 	addi	r2,r2,32
    304c:	10c00035 	stwio	r3,0(r2)
    IOWR(CY7C67200_BASE,HPI_DATA,0x0008); //4 port number
    3050:	00c00204 	movi	r3,8
    3054:	00824034 	movhi	r2,2304
    3058:	10800804 	addi	r2,r2,32
    305c:	10c00035 	stwio	r3,0(r2)
    IOWR(CY7C67200_BASE,HPI_DATA,0x02D0); //device address
    3060:	00c0b404 	movi	r3,720
    3064:	00824034 	movhi	r2,2304
    3068:	10800804 	addi	r2,r2,32
    306c:	10c00035 	stwio	r3,0(r2)
    IOWR(CY7C67200_BASE,HPI_DATA,0x0001);
    3070:	00c00044 	movi	r3,1
    3074:	00824034 	movhi	r2,2304
    3078:	10800804 	addi	r2,r2,32
    307c:	10c00035 	stwio	r3,0(r2)
    IOWR(CY7C67200_BASE,HPI_DATA,0x0013);
    3080:	00c004c4 	movi	r3,19
    3084:	00824034 	movhi	r2,2304
    3088:	10800804 	addi	r2,r2,32
    308c:	10c00035 	stwio	r3,0(r2)
    IOWR(CY7C67200_BASE,HPI_DATA,0x0514);
    3090:	00c14504 	movi	r3,1300
    3094:	00824034 	movhi	r2,2304
    3098:	10800804 	addi	r2,r2,32
    309c:	10c00035 	stwio	r3,0(r2)
    
    //td content 4 bytes
    IOWR(CY7C67200_BASE,HPI_DATA,0x0681);//c
    30a0:	00c1a044 	movi	r3,1665
    30a4:	00824034 	movhi	r2,2304
    30a8:	10800804 	addi	r2,r2,32
    30ac:	10c00035 	stwio	r3,0(r2)
    IOWR(CY7C67200_BASE,HPI_DATA,0x2200);//e //config 
    30b0:	00c88004 	movi	r3,8704
    30b4:	00824034 	movhi	r2,2304
    30b8:	10800804 	addi	r2,r2,32
    30bc:	10c00035 	stwio	r3,0(r2)
    IOWR(CY7C67200_BASE,HPI_DATA,0x0000);//0
    30c0:	0007883a 	mov	r3,zero
    30c4:	00824034 	movhi	r2,2304
    30c8:	10800804 	addi	r2,r2,32
    30cc:	10c00035 	stwio	r3,0(r2)
    IOWR(CY7C67200_BASE,HPI_DATA,0x007B);//2
    30d0:	00c01ec4 	movi	r3,123
    30d4:	00824034 	movhi	r2,2304
    30d8:	10800804 	addi	r2,r2,32
    30dc:	10c00035 	stwio	r3,0(r2)
    
    //data phase IN-1
    IOWR(CY7C67200_BASE,HPI_DATA,0x0580); //514
    30e0:	00c16004 	movi	r3,1408
    30e4:	00824034 	movhi	r2,2304
    30e8:	10800804 	addi	r2,r2,32
    30ec:	10c00035 	stwio	r3,0(r2)
    IOWR(CY7C67200_BASE,HPI_DATA,0x0008);//6
    30f0:	00c00204 	movi	r3,8
    30f4:	00824034 	movhi	r2,2304
    30f8:	10800804 	addi	r2,r2,32
    30fc:	10c00035 	stwio	r3,0(r2)
    IOWR(CY7C67200_BASE,HPI_DATA,0x0290);//8
    3100:	00c0a404 	movi	r3,656
    3104:	00824034 	movhi	r2,2304
    3108:	10800804 	addi	r2,r2,32
    310c:	10c00035 	stwio	r3,0(r2)
    IOWR(CY7C67200_BASE,HPI_DATA,0x0041);//a
    3110:	00c01044 	movi	r3,65
    3114:	00824034 	movhi	r2,2304
    3118:	10800804 	addi	r2,r2,32
    311c:	10c00035 	stwio	r3,0(r2)
    IOWR(CY7C67200_BASE,HPI_DATA,0x0013);//c
    3120:	00c004c4 	movi	r3,19
    3124:	00824034 	movhi	r2,2304
    3128:	10800804 	addi	r2,r2,32
    312c:	10c00035 	stwio	r3,0(r2)
    IOWR(CY7C67200_BASE,HPI_DATA,0x0520);//e
    3130:	00c14804 	movi	r3,1312
    3134:	00824034 	movhi	r2,2304
    3138:	10800804 	addi	r2,r2,32
    313c:	10c00035 	stwio	r3,0(r2)
    
    //data phase IN-2
    IOWR(CY7C67200_BASE,HPI_DATA,0x0588); //520
    3140:	00c16204 	movi	r3,1416
    3144:	00824034 	movhi	r2,2304
    3148:	10800804 	addi	r2,r2,32
    314c:	10c00035 	stwio	r3,0(r2)
    IOWR(CY7C67200_BASE,HPI_DATA,0x0008);//2
    3150:	00c00204 	movi	r3,8
    3154:	00824034 	movhi	r2,2304
    3158:	10800804 	addi	r2,r2,32
    315c:	10c00035 	stwio	r3,0(r2)
    IOWR(CY7C67200_BASE,HPI_DATA,0x0290);//4
    3160:	00c0a404 	movi	r3,656
    3164:	00824034 	movhi	r2,2304
    3168:	10800804 	addi	r2,r2,32
    316c:	10c00035 	stwio	r3,0(r2)
    IOWR(CY7C67200_BASE,HPI_DATA,0x0001);//6 //data0
    3170:	00c00044 	movi	r3,1
    3174:	00824034 	movhi	r2,2304
    3178:	10800804 	addi	r2,r2,32
    317c:	10c00035 	stwio	r3,0(r2)
    IOWR(CY7C67200_BASE,HPI_DATA,0x0013);//8
    3180:	00c004c4 	movi	r3,19
    3184:	00824034 	movhi	r2,2304
    3188:	10800804 	addi	r2,r2,32
    318c:	10c00035 	stwio	r3,0(r2)
    IOWR(CY7C67200_BASE,HPI_DATA,0x052c);//a
    3190:	00c14b04 	movi	r3,1324
    3194:	00824034 	movhi	r2,2304
    3198:	10800804 	addi	r2,r2,32
    319c:	10c00035 	stwio	r3,0(r2)
    
    //data phase IN-3
    IOWR(CY7C67200_BASE,HPI_DATA,0x0590); //52c
    31a0:	00c16404 	movi	r3,1424
    31a4:	00824034 	movhi	r2,2304
    31a8:	10800804 	addi	r2,r2,32
    31ac:	10c00035 	stwio	r3,0(r2)
    IOWR(CY7C67200_BASE,HPI_DATA,0x0008);//e
    31b0:	00c00204 	movi	r3,8
    31b4:	00824034 	movhi	r2,2304
    31b8:	10800804 	addi	r2,r2,32
    31bc:	10c00035 	stwio	r3,0(r2)
    IOWR(CY7C67200_BASE,HPI_DATA,0x0290);//530
    31c0:	00c0a404 	movi	r3,656
    31c4:	00824034 	movhi	r2,2304
    31c8:	10800804 	addi	r2,r2,32
    31cc:	10c00035 	stwio	r3,0(r2)
    IOWR(CY7C67200_BASE,HPI_DATA,0x0041);//2
    31d0:	00c01044 	movi	r3,65
    31d4:	00824034 	movhi	r2,2304
    31d8:	10800804 	addi	r2,r2,32
    31dc:	10c00035 	stwio	r3,0(r2)
    IOWR(CY7C67200_BASE,HPI_DATA,0x0013);//4
    31e0:	00c004c4 	movi	r3,19
    31e4:	00824034 	movhi	r2,2304
    31e8:	10800804 	addi	r2,r2,32
    31ec:	10c00035 	stwio	r3,0(r2)
    IOWR(CY7C67200_BASE,HPI_DATA,0x0538);//6
    31f0:	00c14e04 	movi	r3,1336
    31f4:	00824034 	movhi	r2,2304
    31f8:	10800804 	addi	r2,r2,32
    31fc:	10c00035 	stwio	r3,0(r2)
    
    //data phase IN-4
    IOWR(CY7C67200_BASE,HPI_DATA,0x0598); //538
    3200:	00c16604 	movi	r3,1432
    3204:	00824034 	movhi	r2,2304
    3208:	10800804 	addi	r2,r2,32
    320c:	10c00035 	stwio	r3,0(r2)
    IOWR(CY7C67200_BASE,HPI_DATA,0x0008);//a
    3210:	00c00204 	movi	r3,8
    3214:	00824034 	movhi	r2,2304
    3218:	10800804 	addi	r2,r2,32
    321c:	10c00035 	stwio	r3,0(r2)
    IOWR(CY7C67200_BASE,HPI_DATA,0x0290);//c
    3220:	00c0a404 	movi	r3,656
    3224:	00824034 	movhi	r2,2304
    3228:	10800804 	addi	r2,r2,32
    322c:	10c00035 	stwio	r3,0(r2)
    IOWR(CY7C67200_BASE,HPI_DATA,0x0001);//e //data0
    3230:	00c00044 	movi	r3,1
    3234:	00824034 	movhi	r2,2304
    3238:	10800804 	addi	r2,r2,32
    323c:	10c00035 	stwio	r3,0(r2)
    IOWR(CY7C67200_BASE,HPI_DATA,0x0013);//540
    3240:	00c004c4 	movi	r3,19
    3244:	00824034 	movhi	r2,2304
    3248:	10800804 	addi	r2,r2,32
    324c:	10c00035 	stwio	r3,0(r2)
    IOWR(CY7C67200_BASE,HPI_DATA,0x0544);//2
    3250:	00c15104 	movi	r3,1348
    3254:	00824034 	movhi	r2,2304
    3258:	10800804 	addi	r2,r2,32
    325c:	10c00035 	stwio	r3,0(r2)
    
    //data phase IN-5
    IOWR(CY7C67200_BASE,HPI_DATA,0x05a0); //544
    3260:	00c16804 	movi	r3,1440
    3264:	00824034 	movhi	r2,2304
    3268:	10800804 	addi	r2,r2,32
    326c:	10c00035 	stwio	r3,0(r2)
    IOWR(CY7C67200_BASE,HPI_DATA,0x0008);//6
    3270:	00c00204 	movi	r3,8
    3274:	00824034 	movhi	r2,2304
    3278:	10800804 	addi	r2,r2,32
    327c:	10c00035 	stwio	r3,0(r2)
    IOWR(CY7C67200_BASE,HPI_DATA,0x0290);//8
    3280:	00c0a404 	movi	r3,656
    3284:	00824034 	movhi	r2,2304
    3288:	10800804 	addi	r2,r2,32
    328c:	10c00035 	stwio	r3,0(r2)
    IOWR(CY7C67200_BASE,HPI_DATA,0x0041);//a //data1
    3290:	00c01044 	movi	r3,65
    3294:	00824034 	movhi	r2,2304
    3298:	10800804 	addi	r2,r2,32
    329c:	10c00035 	stwio	r3,0(r2)
    IOWR(CY7C67200_BASE,HPI_DATA,0x0013);//c
    32a0:	00c004c4 	movi	r3,19
    32a4:	00824034 	movhi	r2,2304
    32a8:	10800804 	addi	r2,r2,32
    32ac:	10c00035 	stwio	r3,0(r2)
    IOWR(CY7C67200_BASE,HPI_DATA,0x0550);//e
    32b0:	00c15404 	movi	r3,1360
    32b4:	00824034 	movhi	r2,2304
    32b8:	10800804 	addi	r2,r2,32
    32bc:	10c00035 	stwio	r3,0(r2)
    
    //data phase IN-6
    IOWR(CY7C67200_BASE,HPI_DATA,0x05a8); //550
    32c0:	00c16a04 	movi	r3,1448
    32c4:	00824034 	movhi	r2,2304
    32c8:	10800804 	addi	r2,r2,32
    32cc:	10c00035 	stwio	r3,0(r2)
    IOWR(CY7C67200_BASE,HPI_DATA,0x0008);//2
    32d0:	00c00204 	movi	r3,8
    32d4:	00824034 	movhi	r2,2304
    32d8:	10800804 	addi	r2,r2,32
    32dc:	10c00035 	stwio	r3,0(r2)
    IOWR(CY7C67200_BASE,HPI_DATA,0x0290);//4
    32e0:	00c0a404 	movi	r3,656
    32e4:	00824034 	movhi	r2,2304
    32e8:	10800804 	addi	r2,r2,32
    32ec:	10c00035 	stwio	r3,0(r2)
    IOWR(CY7C67200_BASE,HPI_DATA,0x0001);//6 //data0
    32f0:	00c00044 	movi	r3,1
    32f4:	00824034 	movhi	r2,2304
    32f8:	10800804 	addi	r2,r2,32
    32fc:	10c00035 	stwio	r3,0(r2)
    IOWR(CY7C67200_BASE,HPI_DATA,0x0013);//8
    3300:	00c004c4 	movi	r3,19
    3304:	00824034 	movhi	r2,2304
    3308:	10800804 	addi	r2,r2,32
    330c:	10c00035 	stwio	r3,0(r2)
    IOWR(CY7C67200_BASE,HPI_DATA,0x055c);//a
    3310:	00c15704 	movi	r3,1372
    3314:	00824034 	movhi	r2,2304
    3318:	10800804 	addi	r2,r2,32
    331c:	10c00035 	stwio	r3,0(r2)
    
    //data phase IN-7
    IOWR(CY7C67200_BASE,HPI_DATA,0x05b0); //c
    3320:	00c16c04 	movi	r3,1456
    3324:	00824034 	movhi	r2,2304
    3328:	10800804 	addi	r2,r2,32
    332c:	10c00035 	stwio	r3,0(r2)
    IOWR(CY7C67200_BASE,HPI_DATA,0x0008);//e
    3330:	00c00204 	movi	r3,8
    3334:	00824034 	movhi	r2,2304
    3338:	10800804 	addi	r2,r2,32
    333c:	10c00035 	stwio	r3,0(r2)
    IOWR(CY7C67200_BASE,HPI_DATA,0x0290);//560
    3340:	00c0a404 	movi	r3,656
    3344:	00824034 	movhi	r2,2304
    3348:	10800804 	addi	r2,r2,32
    334c:	10c00035 	stwio	r3,0(r2)
    IOWR(CY7C67200_BASE,HPI_DATA,0x0041);//2 //data1
    3350:	00c01044 	movi	r3,65
    3354:	00824034 	movhi	r2,2304
    3358:	10800804 	addi	r2,r2,32
    335c:	10c00035 	stwio	r3,0(r2)
    IOWR(CY7C67200_BASE,HPI_DATA,0x0013);//4
    3360:	00c004c4 	movi	r3,19
    3364:	00824034 	movhi	r2,2304
    3368:	10800804 	addi	r2,r2,32
    336c:	10c00035 	stwio	r3,0(r2)
    IOWR(CY7C67200_BASE,HPI_DATA,0x0568);//6
    3370:	00c15a04 	movi	r3,1384
    3374:	00824034 	movhi	r2,2304
    3378:	10800804 	addi	r2,r2,32
    337c:	10c00035 	stwio	r3,0(r2)
    
    //data phase IN-8
    IOWR(CY7C67200_BASE,HPI_DATA,0x05b8); //8
    3380:	00c16e04 	movi	r3,1464
    3384:	00824034 	movhi	r2,2304
    3388:	10800804 	addi	r2,r2,32
    338c:	10c00035 	stwio	r3,0(r2)
    IOWR(CY7C67200_BASE,HPI_DATA,0x0003);//a
    3390:	00c000c4 	movi	r3,3
    3394:	00824034 	movhi	r2,2304
    3398:	10800804 	addi	r2,r2,32
    339c:	10c00035 	stwio	r3,0(r2)
    IOWR(CY7C67200_BASE,HPI_DATA,0x0290);//c
    33a0:	00c0a404 	movi	r3,656
    33a4:	00824034 	movhi	r2,2304
    33a8:	10800804 	addi	r2,r2,32
    33ac:	10c00035 	stwio	r3,0(r2)
    IOWR(CY7C67200_BASE,HPI_DATA,0x0001);//e //data1
    33b0:	00c00044 	movi	r3,1
    33b4:	00824034 	movhi	r2,2304
    33b8:	10800804 	addi	r2,r2,32
    33bc:	10c00035 	stwio	r3,0(r2)
    IOWR(CY7C67200_BASE,HPI_DATA,0x0013);//570
    33c0:	00c004c4 	movi	r3,19
    33c4:	00824034 	movhi	r2,2304
    33c8:	10800804 	addi	r2,r2,32
    33cc:	10c00035 	stwio	r3,0(r2)
    IOWR(CY7C67200_BASE,HPI_DATA,0x0574);//2
    33d0:	00c15d04 	movi	r3,1396
    33d4:	00824034 	movhi	r2,2304
    33d8:	10800804 	addi	r2,r2,32
    33dc:	10c00035 	stwio	r3,0(r2)
    
    //status phase
    IOWR(CY7C67200_BASE,HPI_DATA,0x0000); //574
    33e0:	0007883a 	mov	r3,zero
    33e4:	00824034 	movhi	r2,2304
    33e8:	10800804 	addi	r2,r2,32
    33ec:	10c00035 	stwio	r3,0(r2)
    IOWR(CY7C67200_BASE,HPI_DATA,0x0000);//6
    33f0:	0007883a 	mov	r3,zero
    33f4:	00824034 	movhi	r2,2304
    33f8:	10800804 	addi	r2,r2,32
    33fc:	10c00035 	stwio	r3,0(r2)
    IOWR(CY7C67200_BASE,HPI_DATA,0x0210);//8
    3400:	00c08404 	movi	r3,528
    3404:	00824034 	movhi	r2,2304
    3408:	10800804 	addi	r2,r2,32
    340c:	10c00035 	stwio	r3,0(r2)
    IOWR(CY7C67200_BASE,HPI_DATA,0x0041);//a
    3410:	00c01044 	movi	r3,65
    3414:	00824034 	movhi	r2,2304
    3418:	10800804 	addi	r2,r2,32
    341c:	10c00035 	stwio	r3,0(r2)
    IOWR(CY7C67200_BASE,HPI_DATA,0x0013);//c
    3420:	00c004c4 	movi	r3,19
    3424:	00824034 	movhi	r2,2304
    3428:	10800804 	addi	r2,r2,32
    342c:	10c00035 	stwio	r3,0(r2)
    IOWR(CY7C67200_BASE,HPI_DATA,0x0000);//e
    3430:	0007883a 	mov	r3,zero
    3434:	00824034 	movhi	r2,2304
    3438:	10800804 	addi	r2,r2,32
    343c:	10c00035 	stwio	r3,0(r2)
          
    UsbWrite(HUSB_SIE1_pCurrentTDPtr,0x0500); //HUSB_SIE1_pCurrentTDPtr
    3440:	01006c04 	movi	r4,432
    3444:	01414004 	movi	r5,1280
    3448:	0003be80 	call	3be8 <UsbWrite>
    usleep(10*1000);
    344c:	0109c404 	movi	r4,10000
    3450:	00108ec0 	call	108ec <usleep>
     
    UsbWrite(HUSB_SIE1_pCurrentTDPtr,0x0500); //HUSB_SIE1_pCurrentTDPtr
    
   //usleep(100*1000);
   //if no message
    while (!(IORD(CY7C67200_BASE,HPI_STATUS) & HPI_STATUS_SIE1msg_FLAG) )  //read sie1 msg register
    3454:	00824034 	movhi	r2,2304
    3458:	10800b04 	addi	r2,r2,44
    345c:	10800037 	ldwio	r2,0(r2)
    3460:	1080040c 	andi	r2,r2,16
    3464:	103ef226 	beq	r2,zero,3030 <__alt_mem_sram+0xf7e03030>
          
    UsbWrite(HUSB_SIE1_pCurrentTDPtr,0x0500); //HUSB_SIE1_pCurrentTDPtr
    usleep(10*1000);
    }
    
    usb_ctl_val = UsbRead(HPI_SIE1_MSG_ADR);
    3468:	01005104 	movi	r4,324
    346c:	0003c340 	call	3c34 <UsbRead>
    3470:	e0bff80d 	sth	r2,-32(fp)
    UsbWrite(HPI_SIE1_MSG_ADR, 0);
    3474:	01005104 	movi	r4,324
    3478:	000b883a 	mov	r5,zero
    347c:	0003be80 	call	3be8 <UsbWrite>
    while (usb_ctl_val != 0x1000)  //read sie1 msg register
    3480:	00000d06 	br	34b8 <main+0x325c>
    {
       if(usb_ctl_val == 0x000)
    3484:	e0bff80b 	ldhu	r2,-32(fp)
    3488:	10000526 	beq	r2,zero,34a0 <main+0x3244>
       {
       }
       else
       {
        printf("[SIE1 MSG]: SIE 1 msg reg is %x\n",usb_ctl_val);
    348c:	e0bff80b 	ldhu	r2,-32(fp)
    3490:	01000074 	movhi	r4,1
    3494:	210c0504 	addi	r4,r4,12308
    3498:	100b883a 	mov	r5,r2
    349c:	0003d5c0 	call	3d5c <printf>
       }
       usb_ctl_val = UsbRead(HPI_SIE1_MSG_ADR);
    34a0:	01005104 	movi	r4,324
    34a4:	0003c340 	call	3c34 <UsbRead>
    34a8:	e0bff80d 	sth	r2,-32(fp)
       UsbWrite(HPI_SIE1_MSG_ADR, 0);
    34ac:	01005104 	movi	r4,324
    34b0:	000b883a 	mov	r5,zero
    34b4:	0003be80 	call	3be8 <UsbWrite>
    usleep(10*1000);
    }
    
    usb_ctl_val = UsbRead(HPI_SIE1_MSG_ADR);
    UsbWrite(HPI_SIE1_MSG_ADR, 0);
    while (usb_ctl_val != 0x1000)  //read sie1 msg register
    34b8:	e0bff80b 	ldhu	r2,-32(fp)
    34bc:	10840018 	cmpnei	r2,r2,4096
    34c0:	103ff01e 	bne	r2,zero,3484 <__alt_mem_sram+0xf7e03484>
       usb_ctl_val = UsbRead(HPI_SIE1_MSG_ADR);
       UsbWrite(HPI_SIE1_MSG_ADR, 0);
      
    }

    IOWR(CY7C67200_BASE,HPI_ADDR,0x0506);
    34c4:	00c14184 	movi	r3,1286
    34c8:	00824034 	movhi	r2,2304
    34cc:	10800a04 	addi	r2,r2,40
    34d0:	10c00035 	stwio	r3,0(r2)
    printf("[ENUM PROCESS]: step 9 TD Status Byte is %x\n",IORD(CY7C67200_BASE,HPI_DATA));
    34d4:	00824034 	movhi	r2,2304
    34d8:	10800804 	addi	r2,r2,32
    34dc:	10800037 	ldwio	r2,0(r2)
    34e0:	01000074 	movhi	r4,1
    34e4:	210c0e04 	addi	r4,r4,12344
    34e8:	100b883a 	mov	r5,r2
    34ec:	0003d5c0 	call	3d5c <printf>
    
    IOWR(CY7C67200_BASE,HPI_ADDR,0x0508);
    34f0:	00c14204 	movi	r3,1288
    34f4:	00824034 	movhi	r2,2304
    34f8:	10800a04 	addi	r2,r2,40
    34fc:	10c00035 	stwio	r3,0(r2)
    usb_ctl_val = IORD(CY7C67200_BASE,HPI_DATA);
    3500:	00824034 	movhi	r2,2304
    3504:	10800804 	addi	r2,r2,32
    3508:	10800037 	ldwio	r2,0(r2)
    350c:	e0bff80d 	sth	r2,-32(fp)
    printf("[ENUM PROCESS]: step 9 TD Control Byte is %x\n",usb_ctl_val);
    3510:	e0bff80b 	ldhu	r2,-32(fp)
    3514:	01000074 	movhi	r4,1
    3518:	210c1a04 	addi	r4,r4,12392
    351c:	100b883a 	mov	r5,r2
    3520:	0003d5c0 	call	3d5c <printf>
    while (usb_ctl_val != 0x03) 
    3524:	00001906 	br	358c <main+0x3330>
    {
       IORD(CY7C67200_BASE,HPI_STATUS);
    3528:	00824034 	movhi	r2,2304
    352c:	10800b04 	addi	r2,r2,44
    3530:	10800037 	ldwio	r2,0(r2)
       if(UsbRead(HPI_SIE1_MSG_ADR) == 0x1000)
    3534:	01005104 	movi	r4,324
    3538:	0003c340 	call	3c34 <UsbRead>
    353c:	10bfffcc 	andi	r2,r2,65535
    3540:	10840018 	cmpnei	r2,r2,4096
    3544:	1000091e 	bne	r2,zero,356c <main+0x3310>
       {
           UsbWrite(HPI_SIE1_MSG_ADR, 0);
    3548:	01005104 	movi	r4,324
    354c:	000b883a 	mov	r5,zero
    3550:	0003be80 	call	3be8 <UsbWrite>
                   
           while (!(IORD(CY7C67200_BASE,HPI_STATUS) & HPI_STATUS_SIE1msg_FLAG) )  //read sie1 msg register
    3554:	0001883a 	nop
    3558:	00824034 	movhi	r2,2304
    355c:	10800b04 	addi	r2,r2,44
    3560:	10800037 	ldwio	r2,0(r2)
    3564:	1080040c 	andi	r2,r2,16
    3568:	103ffb26 	beq	r2,zero,3558 <__alt_mem_sram+0xf7e03558>
           {
            
           }
        }
           //usleep(1000);
           IOWR(CY7C67200_BASE,HPI_ADDR,0x0508);
    356c:	00c14204 	movi	r3,1288
    3570:	00824034 	movhi	r2,2304
    3574:	10800a04 	addi	r2,r2,40
    3578:	10c00035 	stwio	r3,0(r2)
           usb_ctl_val = IORD(CY7C67200_BASE,HPI_DATA); 
    357c:	00824034 	movhi	r2,2304
    3580:	10800804 	addi	r2,r2,32
    3584:	10800037 	ldwio	r2,0(r2)
    3588:	e0bff80d 	sth	r2,-32(fp)
    printf("[ENUM PROCESS]: step 9 TD Status Byte is %x\n",IORD(CY7C67200_BASE,HPI_DATA));
    
    IOWR(CY7C67200_BASE,HPI_ADDR,0x0508);
    usb_ctl_val = IORD(CY7C67200_BASE,HPI_DATA);
    printf("[ENUM PROCESS]: step 9 TD Control Byte is %x\n",usb_ctl_val);
    while (usb_ctl_val != 0x03) 
    358c:	e0bff80b 	ldhu	r2,-32(fp)
    3590:	108000d8 	cmpnei	r2,r2,3
    3594:	103fe41e 	bne	r2,zero,3528 <__alt_mem_sram+0xf7e03528>
           //usleep(1000);
           IOWR(CY7C67200_BASE,HPI_ADDR,0x0508);
           usb_ctl_val = IORD(CY7C67200_BASE,HPI_DATA); 
    }    
       
    printf("---------------[ENUM PROCESS]:get descriptor (class 0x22) pass!----------------\n");
    3598:	01000074 	movhi	r4,1
    359c:	210c2604 	addi	r4,r4,12440
    35a0:	0003e500 	call	3e50 <puts>
    

    
    //-----------------------------------get mouse x y button value------------------------------------------------//
    usleep(10000);
    35a4:	0109c404 	movi	r4,10000
    35a8:	00108ec0 	call	108ec <usleep>
    while(1)
    {
      toggle++;
    35ac:	e0bffa03 	ldbu	r2,-24(fp)
    35b0:	10800044 	addi	r2,r2,1
    35b4:	e0bffa05 	stb	r2,-24(fp)
      IOWR(CY7C67200_BASE,HPI_ADDR,0x0500); //the start address       
    35b8:	00c14004 	movi	r3,1280
    35bc:	00824034 	movhi	r2,2304
    35c0:	10800a04 	addi	r2,r2,40
    35c4:	10c00035 	stwio	r3,0(r2)
      //data phase IN-1
      IOWR(CY7C67200_BASE,HPI_DATA,0x051c); //500
    35c8:	00c14704 	movi	r3,1308
    35cc:	00824034 	movhi	r2,2304
    35d0:	10800804 	addi	r2,r2,32
    35d4:	10c00035 	stwio	r3,0(r2)
      if(data_size ==8)
    35d8:	e0bffe83 	ldbu	r2,-6(fp)
    35dc:	10800218 	cmpnei	r2,r2,8
    35e0:	1000051e 	bne	r2,zero,35f8 <main+0x339c>
      {
          IOWR(CY7C67200_BASE,HPI_DATA,0x0006);//2 data length
    35e4:	00c00184 	movi	r3,6
    35e8:	00824034 	movhi	r2,2304
    35ec:	10800804 	addi	r2,r2,32
    35f0:	10c00035 	stwio	r3,0(r2)
    35f4:	00000506 	br	360c <main+0x33b0>
      }
      else
      {
          IOWR(CY7C67200_BASE,HPI_DATA,0x000f & data_size);//2 data length
    35f8:	e0bffe83 	ldbu	r2,-6(fp)
    35fc:	10c003cc 	andi	r3,r2,15
    3600:	00824034 	movhi	r2,2304
    3604:	10800804 	addi	r2,r2,32
    3608:	10c00035 	stwio	r3,0(r2)
      }
      IOWR(CY7C67200_BASE,HPI_DATA,0x0291);//4 //endpoint 1
    360c:	00c0a444 	movi	r3,657
    3610:	00824034 	movhi	r2,2304
    3614:	10800804 	addi	r2,r2,32
    3618:	10c00035 	stwio	r3,0(r2)
      if(toggle%2)
    361c:	e0bffa03 	ldbu	r2,-24(fp)
    3620:	1080004c 	andi	r2,r2,1
    3624:	10803fcc 	andi	r2,r2,255
    3628:	10000526 	beq	r2,zero,3640 <main+0x33e4>
      {
          IOWR(CY7C67200_BASE,HPI_DATA,0x0001);//6 //data 1
    362c:	00c00044 	movi	r3,1
    3630:	00824034 	movhi	r2,2304
    3634:	10800804 	addi	r2,r2,32
    3638:	10c00035 	stwio	r3,0(r2)
    363c:	00000406 	br	3650 <main+0x33f4>
      }
      else
      {
          IOWR(CY7C67200_BASE,HPI_DATA,0x0041);//6 //data 1
    3640:	00c01044 	movi	r3,65
    3644:	00824034 	movhi	r2,2304
    3648:	10800804 	addi	r2,r2,32
    364c:	10c00035 	stwio	r3,0(r2)
      }
      IOWR(CY7C67200_BASE,HPI_DATA,0x0013);//8
    3650:	00c004c4 	movi	r3,19
    3654:	00824034 	movhi	r2,2304
    3658:	10800804 	addi	r2,r2,32
    365c:	10c00035 	stwio	r3,0(r2)
      IOWR(CY7C67200_BASE,HPI_DATA,0x0000);//a
    3660:	0007883a 	mov	r3,zero
    3664:	00824034 	movhi	r2,2304
    3668:	10800804 	addi	r2,r2,32
    366c:	10c00035 	stwio	r3,0(r2)
      UsbWrite(HUSB_SIE1_pCurrentTDPtr,0x0500); //HUSB_SIE1_pCurrentTDPtr
    3670:	01006c04 	movi	r4,432
    3674:	01414004 	movi	r5,1280
    3678:	0003be80 	call	3be8 <UsbWrite>
      //usleep(10*1000);    
      while (!(IORD(CY7C67200_BASE,HPI_STATUS) & HPI_STATUS_SIE1msg_FLAG) )  //read sie1 msg register
    367c:	00003306 	br	374c <main+0x34f0>
      {
          IOWR(CY7C67200_BASE,HPI_ADDR,0x0500); //the start address       
    3680:	00c14004 	movi	r3,1280
    3684:	00824034 	movhi	r2,2304
    3688:	10800a04 	addi	r2,r2,40
    368c:	10c00035 	stwio	r3,0(r2)
          //data phase IN-1
          IOWR(CY7C67200_BASE,HPI_DATA,0x051c); //500
    3690:	00c14704 	movi	r3,1308
    3694:	00824034 	movhi	r2,2304
    3698:	10800804 	addi	r2,r2,32
    369c:	10c00035 	stwio	r3,0(r2)
          if(data_size ==8)
    36a0:	e0bffe83 	ldbu	r2,-6(fp)
    36a4:	10800218 	cmpnei	r2,r2,8
    36a8:	1000051e 	bne	r2,zero,36c0 <main+0x3464>
          {
             IOWR(CY7C67200_BASE,HPI_DATA,0x0006);//2 data length
    36ac:	00c00184 	movi	r3,6
    36b0:	00824034 	movhi	r2,2304
    36b4:	10800804 	addi	r2,r2,32
    36b8:	10c00035 	stwio	r3,0(r2)
    36bc:	00000506 	br	36d4 <main+0x3478>
          }
          else
          {
             IOWR(CY7C67200_BASE,HPI_DATA,0x000f & data_size);//2 data length
    36c0:	e0bffe83 	ldbu	r2,-6(fp)
    36c4:	10c003cc 	andi	r3,r2,15
    36c8:	00824034 	movhi	r2,2304
    36cc:	10800804 	addi	r2,r2,32
    36d0:	10c00035 	stwio	r3,0(r2)
          }
          IOWR(CY7C67200_BASE,HPI_DATA,0x0291);//4 //endpoint 1
    36d4:	00c0a444 	movi	r3,657
    36d8:	00824034 	movhi	r2,2304
    36dc:	10800804 	addi	r2,r2,32
    36e0:	10c00035 	stwio	r3,0(r2)
          if(toggle%2)
    36e4:	e0bffa03 	ldbu	r2,-24(fp)
    36e8:	1080004c 	andi	r2,r2,1
    36ec:	10803fcc 	andi	r2,r2,255
    36f0:	10000526 	beq	r2,zero,3708 <main+0x34ac>
          {
            IOWR(CY7C67200_BASE,HPI_DATA,0x0001);//6 //data 1
    36f4:	00c00044 	movi	r3,1
    36f8:	00824034 	movhi	r2,2304
    36fc:	10800804 	addi	r2,r2,32
    3700:	10c00035 	stwio	r3,0(r2)
    3704:	00000406 	br	3718 <main+0x34bc>
          }
          else
          {
            IOWR(CY7C67200_BASE,HPI_DATA,0x0041);//6 //data 1
    3708:	00c01044 	movi	r3,65
    370c:	00824034 	movhi	r2,2304
    3710:	10800804 	addi	r2,r2,32
    3714:	10c00035 	stwio	r3,0(r2)
          }
          IOWR(CY7C67200_BASE,HPI_DATA,0x0013);//8
    3718:	00c004c4 	movi	r3,19
    371c:	00824034 	movhi	r2,2304
    3720:	10800804 	addi	r2,r2,32
    3724:	10c00035 	stwio	r3,0(r2)
          IOWR(CY7C67200_BASE,HPI_DATA,0x0000);//a
    3728:	0007883a 	mov	r3,zero
    372c:	00824034 	movhi	r2,2304
    3730:	10800804 	addi	r2,r2,32
    3734:	10c00035 	stwio	r3,0(r2)
          UsbWrite(HUSB_SIE1_pCurrentTDPtr,0x0500); //HUSB_SIE1_pCurrentTDPtr
    3738:	01006c04 	movi	r4,432
    373c:	01414004 	movi	r5,1280
    3740:	0003be80 	call	3be8 <UsbWrite>
          usleep(10*1000);
    3744:	0109c404 	movi	r4,10000
    3748:	00108ec0 	call	108ec <usleep>
      }
      IOWR(CY7C67200_BASE,HPI_DATA,0x0013);//8
      IOWR(CY7C67200_BASE,HPI_DATA,0x0000);//a
      UsbWrite(HUSB_SIE1_pCurrentTDPtr,0x0500); //HUSB_SIE1_pCurrentTDPtr
      //usleep(10*1000);    
      while (!(IORD(CY7C67200_BASE,HPI_STATUS) & HPI_STATUS_SIE1msg_FLAG) )  //read sie1 msg register
    374c:	00824034 	movhi	r2,2304
    3750:	10800b04 	addi	r2,r2,44
    3754:	10800037 	ldwio	r2,0(r2)
    3758:	1080040c 	andi	r2,r2,16
    375c:	103fc826 	beq	r2,zero,3680 <__alt_mem_sram+0xf7e03680>
          IOWR(CY7C67200_BASE,HPI_DATA,0x0013);//8
          IOWR(CY7C67200_BASE,HPI_DATA,0x0000);//a
          UsbWrite(HUSB_SIE1_pCurrentTDPtr,0x0500); //HUSB_SIE1_pCurrentTDPtr
          usleep(10*1000);
      }//end while
      usb_ctl_val = UsbRead(HPI_SIE1_MSG_ADR);
    3760:	01005104 	movi	r4,324
    3764:	0003c340 	call	3c34 <UsbRead>
    3768:	e0bff80d 	sth	r2,-32(fp)
      UsbWrite(HPI_SIE1_MSG_ADR, 0);
    376c:	01005104 	movi	r4,324
    3770:	000b883a 	mov	r5,zero
    3774:	0003be80 	call	3be8 <UsbWrite>
      while (usb_ctl_val != 0x1000)  //read sie1 msg register
    3778:	00000d06 	br	37b0 <main+0x3554>
      {
         if(usb_ctl_val == 0x000)
    377c:	e0bff80b 	ldhu	r2,-32(fp)
    3780:	10000526 	beq	r2,zero,3798 <main+0x353c>
         {}
         else
         {
            printf("[SIE1 MSG]:SIE1 msg reg is %x\n",usb_ctl_val);
    3784:	e0bff80b 	ldhu	r2,-32(fp)
    3788:	01000074 	movhi	r4,1
    378c:	210aa804 	addi	r4,r4,10912
    3790:	100b883a 	mov	r5,r2
    3794:	0003d5c0 	call	3d5c <printf>
         }
         usb_ctl_val = UsbRead(HPI_SIE1_MSG_ADR);
    3798:	01005104 	movi	r4,324
    379c:	0003c340 	call	3c34 <UsbRead>
    37a0:	e0bff80d 	sth	r2,-32(fp)
         UsbWrite(HPI_SIE1_MSG_ADR, 0);
    37a4:	01005104 	movi	r4,324
    37a8:	000b883a 	mov	r5,zero
    37ac:	0003be80 	call	3be8 <UsbWrite>
          UsbWrite(HUSB_SIE1_pCurrentTDPtr,0x0500); //HUSB_SIE1_pCurrentTDPtr
          usleep(10*1000);
      }//end while
      usb_ctl_val = UsbRead(HPI_SIE1_MSG_ADR);
      UsbWrite(HPI_SIE1_MSG_ADR, 0);
      while (usb_ctl_val != 0x1000)  //read sie1 msg register
    37b0:	e0bff80b 	ldhu	r2,-32(fp)
    37b4:	10840018 	cmpnei	r2,r2,4096
    37b8:	103ff01e 	bne	r2,zero,377c <__alt_mem_sram+0xf7e0377c>
            printf("[SIE1 MSG]:SIE1 msg reg is %x\n",usb_ctl_val);
         }
         usb_ctl_val = UsbRead(HPI_SIE1_MSG_ADR);
         UsbWrite(HPI_SIE1_MSG_ADR, 0);
      }
      IOWR(CY7C67200_BASE,HPI_ADDR,0x0508);
    37bc:	00c14204 	movi	r3,1288
    37c0:	00824034 	movhi	r2,2304
    37c4:	10800a04 	addi	r2,r2,40
    37c8:	10c00035 	stwio	r3,0(r2)
      usb_ctl_val = IORD(CY7C67200_BASE,HPI_DATA);
    37cc:	00824034 	movhi	r2,2304
    37d0:	10800804 	addi	r2,r2,32
    37d4:	10800037 	ldwio	r2,0(r2)
    37d8:	e0bff80d 	sth	r2,-32(fp)

      if (usb_ctl_val != 0x03) 
    37dc:	e0bff80b 	ldhu	r2,-32(fp)
    37e0:	108000e0 	cmpeqi	r2,r2,3
    37e4:	1000051e 	bne	r2,zero,37fc <main+0x35a0>
      {
         pbutton = 0;
    37e8:	e03ffb05 	stb	zero,-20(fp)
         dx = 0;
    37ec:	e03ff985 	stb	zero,-26(fp)
         dy = 0;
    37f0:	e03ff9c5 	stb	zero,-25(fp)
         button_value = 0;
    37f4:	e03fff15 	stw	zero,-4(fp)
    37f8:	00007a06 	br	39e4 <main+0x3788>
      }
    
      else
     {
        if(data_size != 8 )  
    37fc:	e0bffe83 	ldbu	r2,-6(fp)
    3800:	10800220 	cmpeqi	r2,r2,8
    3804:	10003b1e 	bne	r2,zero,38f4 <main+0x3698>
        {
          IOWR(CY7C67200_BASE,HPI_ADDR,0x051c); //the start address  
    3808:	00c14704 	movi	r3,1308
    380c:	00824034 	movhi	r2,2304
    3810:	10800a04 	addi	r2,r2,40
    3814:	10c00035 	stwio	r3,0(r2)
          button_value = IORD(CY7C67200_BASE,HPI_DATA);
    3818:	00824034 	movhi	r2,2304
    381c:	10800804 	addi	r2,r2,32
    3820:	10800037 	ldwio	r2,0(r2)
    3824:	e0bfff15 	stw	r2,-4(fp)
          if((button_value & 0x00ff) ==0x0001)
    3828:	e0bfff17 	ldw	r2,-4(fp)
    382c:	10803fcc 	andi	r2,r2,255
    3830:	10800058 	cmpnei	r2,r2,1
    3834:	1000031e 	bne	r2,zero,3844 <main+0x35e8>
          {
           //printf("left button\n");
            pbutton = 1;
    3838:	00800044 	movi	r2,1
    383c:	e0bffb05 	stb	r2,-20(fp)
    3840:	00000806 	br	3864 <main+0x3608>
          }
          else
          if((button_value& 0x00ff) ==0x0002)
    3844:	e0bfff17 	ldw	r2,-4(fp)
    3848:	10803fcc 	andi	r2,r2,255
    384c:	10800098 	cmpnei	r2,r2,2
    3850:	1000031e 	bne	r2,zero,3860 <main+0x3604>
          {
           //printf("right button\n");
           pbutton = 2;    
    3854:	00800084 	movi	r2,2
    3858:	e0bffb05 	stb	r2,-20(fp)
    385c:	00000106 	br	3864 <main+0x3608>
          }
          else
          {
           pbutton = 0;
    3860:	e03ffb05 	stb	zero,-20(fp)
          }
          if((signed char)((button_value>>8)&0x00ff) != 0)
    3864:	e0bfff17 	ldw	r2,-4(fp)
    3868:	1005d23a 	srai	r2,r2,8
    386c:	10803fcc 	andi	r2,r2,255
    3870:	1080201c 	xori	r2,r2,128
    3874:	10bfe004 	addi	r2,r2,-128
    3878:	10000c26 	beq	r2,zero,38ac <main+0x3650>
          {
       
             if((signed char)((button_value>>8)&0x00ff )==dx)
    387c:	e0bfff17 	ldw	r2,-4(fp)
    3880:	1005d23a 	srai	r2,r2,8
    3884:	10c03fcc 	andi	r3,r2,255
    3888:	18c0201c 	xori	r3,r3,128
    388c:	18ffe004 	addi	r3,r3,-128
    3890:	e0bff987 	ldb	r2,-26(fp)
    3894:	1880021e 	bne	r3,r2,38a0 <main+0x3644>
             {
                dx = 0;
    3898:	e03ff985 	stb	zero,-26(fp)
    389c:	00000306 	br	38ac <main+0x3650>
             }
              else
             {
                dx = (signed char)((button_value>>8)&0x00ff);
    38a0:	e0bfff17 	ldw	r2,-4(fp)
    38a4:	1005d23a 	srai	r2,r2,8
    38a8:	e0bff985 	stb	r2,-26(fp)
             }
       
          }
       
       button_value = IORD(CY7C67200_BASE,HPI_DATA);
    38ac:	00824034 	movhi	r2,2304
    38b0:	10800804 	addi	r2,r2,32
    38b4:	10800037 	ldwio	r2,0(r2)
    38b8:	e0bfff15 	stw	r2,-4(fp)
    
       if(button_value&0xff)
    38bc:	e0bfff17 	ldw	r2,-4(fp)
    38c0:	10803fcc 	andi	r2,r2,255
    38c4:	10004726 	beq	r2,zero,39e4 <main+0x3788>
       {
          //printf("dy value is %d\n",button_value&0xff);
          if((signed char)(button_value&0x00ff) == dy)
    38c8:	e0bfff17 	ldw	r2,-4(fp)
    38cc:	10c03fcc 	andi	r3,r2,255
    38d0:	18c0201c 	xori	r3,r3,128
    38d4:	18ffe004 	addi	r3,r3,-128
    38d8:	e0bff9c7 	ldb	r2,-25(fp)
    38dc:	1880021e 	bne	r3,r2,38e8 <main+0x368c>
          {
             dy = 0;
    38e0:	e03ff9c5 	stb	zero,-25(fp)
    38e4:	00003f06 	br	39e4 <main+0x3788>
          }
          else
          {
             dy = (signed char)(button_value&0xff);
    38e8:	e0bfff17 	ldw	r2,-4(fp)
    38ec:	e0bff9c5 	stb	r2,-25(fp)
    38f0:	00003c06 	br	39e4 <main+0x3788>
        
        }
      }
      else //>8
      {
        IOWR(CY7C67200_BASE,HPI_ADDR,0x051c); //the start address  
    38f4:	00c14704 	movi	r3,1308
    38f8:	00824034 	movhi	r2,2304
    38fc:	10800a04 	addi	r2,r2,40
    3900:	10c00035 	stwio	r3,0(r2)
        button_value = IORD(CY7C67200_BASE,HPI_DATA);
    3904:	00824034 	movhi	r2,2304
    3908:	10800804 	addi	r2,r2,32
    390c:	10800037 	ldwio	r2,0(r2)
    3910:	e0bfff15 	stw	r2,-4(fp)
         if(((button_value>>8) & 0x00ff) ==0x0001)
    3914:	e0bfff17 	ldw	r2,-4(fp)
    3918:	1005d23a 	srai	r2,r2,8
    391c:	10803fcc 	andi	r2,r2,255
    3920:	10800058 	cmpnei	r2,r2,1
    3924:	1000031e 	bne	r2,zero,3934 <main+0x36d8>
        {
           //printf("left button\n");
           pbutton = 1;
    3928:	00800044 	movi	r2,1
    392c:	e0bffb05 	stb	r2,-20(fp)
    3930:	00000906 	br	3958 <main+0x36fc>
        }
        else
        if(((button_value>>8) & 0x00ff) ==0x0002)
    3934:	e0bfff17 	ldw	r2,-4(fp)
    3938:	1005d23a 	srai	r2,r2,8
    393c:	10803fcc 	andi	r2,r2,255
    3940:	10800098 	cmpnei	r2,r2,2
    3944:	1000031e 	bne	r2,zero,3954 <main+0x36f8>
        {
           //printf("right button\n");
           pbutton = 2;    
    3948:	00800084 	movi	r2,2
    394c:	e0bffb05 	stb	r2,-20(fp)
    3950:	00000106 	br	3958 <main+0x36fc>
        }
        else
        {
           pbutton = 0;
    3954:	e03ffb05 	stb	zero,-20(fp)
        }
        button_value = IORD(CY7C67200_BASE,HPI_DATA);
    3958:	00824034 	movhi	r2,2304
    395c:	10800804 	addi	r2,r2,32
    3960:	10800037 	ldwio	r2,0(r2)
    3964:	e0bfff15 	stw	r2,-4(fp)
        if((signed char)((button_value>>8)&0x00ff) != 0)
    3968:	e0bfff17 	ldw	r2,-4(fp)
    396c:	1005d23a 	srai	r2,r2,8
    3970:	10803fcc 	andi	r2,r2,255
    3974:	1080201c 	xori	r2,r2,128
    3978:	10bfe004 	addi	r2,r2,-128
    397c:	10000c26 	beq	r2,zero,39b0 <main+0x3754>
        {
           if((signed char)((button_value>>8)&0x00ff )==dy)
    3980:	e0bfff17 	ldw	r2,-4(fp)
    3984:	1005d23a 	srai	r2,r2,8
    3988:	10c03fcc 	andi	r3,r2,255
    398c:	18c0201c 	xori	r3,r3,128
    3990:	18ffe004 	addi	r3,r3,-128
    3994:	e0bff9c7 	ldb	r2,-25(fp)
    3998:	1880021e 	bne	r3,r2,39a4 <main+0x3748>
           {
              dy = 0;
    399c:	e03ff9c5 	stb	zero,-25(fp)
    39a0:	00000306 	br	39b0 <main+0x3754>
           }
           else
           {
              dy = (signed char)((button_value>>8)&0x00ff);
    39a4:	e0bfff17 	ldw	r2,-4(fp)
    39a8:	1005d23a 	srai	r2,r2,8
    39ac:	e0bff9c5 	stb	r2,-25(fp)
           }
       
        }
       
       if(button_value&0x0ff)
    39b0:	e0bfff17 	ldw	r2,-4(fp)
    39b4:	10803fcc 	andi	r2,r2,255
    39b8:	10000a26 	beq	r2,zero,39e4 <main+0x3788>
       {
          //printf("dy value is %d\n",button_value&0xff);
          if((signed char)(button_value&0x00ff) == dx)
    39bc:	e0bfff17 	ldw	r2,-4(fp)
    39c0:	10c03fcc 	andi	r3,r2,255
    39c4:	18c0201c 	xori	r3,r3,128
    39c8:	18ffe004 	addi	r3,r3,-128
    39cc:	e0bff987 	ldb	r2,-26(fp)
    39d0:	1880021e 	bne	r3,r2,39dc <main+0x3780>
          {
             dx = 0;
    39d4:	e03ff985 	stb	zero,-26(fp)
    39d8:	00000206 	br	39e4 <main+0x3788>
          }
          else
          {
             dx = (signed char)(button_value&0xff);
    39dc:	e0bfff17 	ldw	r2,-4(fp)
    39e0:	e0bff985 	stb	r2,-26(fp)
        }
      }
        
    }    
     
    px = px + dx;
    39e4:	e0fff987 	ldb	r3,-26(fp)
    39e8:	e0bff88b 	ldhu	r2,-30(fp)
    39ec:	1885883a 	add	r2,r3,r2
    39f0:	e0bff88d 	sth	r2,-30(fp)
    py = py + dy;
    39f4:	e0fff9c7 	ldb	r3,-25(fp)
    39f8:	e0bff90b 	ldhu	r2,-28(fp)
    39fc:	1885883a 	add	r2,r3,r2
    3a00:	e0bff90d 	sth	r2,-28(fp)
    
    px=maxmin(px,639,0);
    3a04:	e0bff88b 	ldhu	r2,-30(fp)
    3a08:	1009883a 	mov	r4,r2
    3a0c:	01409fc4 	movi	r5,639
    3a10:	000d883a 	mov	r6,zero
    3a14:	00002080 	call	208 <maxmin>
    3a18:	e0bff88d 	sth	r2,-30(fp)
    py=maxmin(py,479,0);
    3a1c:	e0bff90b 	ldhu	r2,-28(fp)
    3a20:	1009883a 	mov	r4,r2
    3a24:	014077c4 	movi	r5,479
    3a28:	000d883a 	mov	r6,zero
    3a2c:	00002080 	call	208 <maxmin>
    3a30:	e0bff90d 	sth	r2,-28(fp)
    *MOUSEX_PIO = px;
    3a34:	e0fff88b 	ldhu	r3,-30(fp)
    3a38:	e0bffc17 	ldw	r2,-16(fp)
    3a3c:	10c00015 	stw	r3,0(r2)
    while(*MOUSEX_PIO != px);
    3a40:	0001883a 	nop
    3a44:	e0bffc17 	ldw	r2,-16(fp)
    3a48:	10c00017 	ldw	r3,0(r2)
    3a4c:	e0bff88b 	ldhu	r2,-30(fp)
    3a50:	18bffc1e 	bne	r3,r2,3a44 <__alt_mem_sram+0xf7e03a44>
    *MOUSEY_PIO = py;
    3a54:	e0fff90b 	ldhu	r3,-28(fp)
    3a58:	e0bffd17 	ldw	r2,-12(fp)
    3a5c:	10c00015 	stw	r3,0(r2)
    while(*MOUSEY_PIO != py);
    3a60:	0001883a 	nop
    3a64:	e0bffd17 	ldw	r2,-12(fp)
    3a68:	10c00017 	ldw	r3,0(r2)
    3a6c:	e0bff90b 	ldhu	r2,-28(fp)
    3a70:	18bffc1e 	bne	r3,r2,3a64 <__alt_mem_sram+0xf7e03a64>
    printf("\n[MOUSE XY]:%d, %d", px, py);
    3a74:	e0fff88b 	ldhu	r3,-30(fp)
    3a78:	e0bff90b 	ldhu	r2,-28(fp)
    3a7c:	01000074 	movhi	r4,1
    3a80:	210c3a04 	addi	r4,r4,12520
    3a84:	180b883a 	mov	r5,r3
    3a88:	100d883a 	mov	r6,r2
    3a8c:	0003d5c0 	call	3d5c <printf>
    usleep(5*1000);
    3a90:	0104e204 	movi	r4,5000
    3a94:	00108ec0 	call	108ec <usleep>
    //usleep(5*1000);
    //USB hot plug routine
    usb_ctl_val = UsbRead(ctl_reg);
    3a98:	d0a6cb0b 	ldhu	r2,-25812(gp)
    3a9c:	10bfffcc 	andi	r2,r2,65535
    3aa0:	1009883a 	mov	r4,r2
    3aa4:	0003c340 	call	3c34 <UsbRead>
    3aa8:	e0bff80d 	sth	r2,-32(fp)
    //usleep(5*1000);
    usb_ctl_val = UsbRead(ctl_reg);
    3aac:	d0a6cb0b 	ldhu	r2,-25812(gp)
    3ab0:	10bfffcc 	andi	r2,r2,65535
    3ab4:	1009883a 	mov	r4,r2
    3ab8:	0003c340 	call	3c34 <UsbRead>
    3abc:	e0bff80d 	sth	r2,-32(fp)
    //usleep(5*1000);
    usb_ctl_val = UsbRead(ctl_reg);
    3ac0:	d0a6cb0b 	ldhu	r2,-25812(gp)
    3ac4:	10bfffcc 	andi	r2,r2,65535
    3ac8:	1009883a 	mov	r4,r2
    3acc:	0003c340 	call	3c34 <UsbRead>
    3ad0:	e0bff80d 	sth	r2,-32(fp)
    //usleep(5*1000);
    usb_ctl_val = UsbRead(ctl_reg);
    3ad4:	d0a6cb0b 	ldhu	r2,-25812(gp)
    3ad8:	10bfffcc 	andi	r2,r2,65535
    3adc:	1009883a 	mov	r4,r2
    3ae0:	0003c340 	call	3c34 <UsbRead>
    3ae4:	e0bff80d 	sth	r2,-32(fp)
    //usleep(5*1000);
    usb_ctl_val = UsbRead(ctl_reg);
    3ae8:	d0a6cb0b 	ldhu	r2,-25812(gp)
    3aec:	10bfffcc 	andi	r2,r2,65535
    3af0:	1009883a 	mov	r4,r2
    3af4:	0003c340 	call	3c34 <UsbRead>
    3af8:	e0bff80d 	sth	r2,-32(fp)
    //usleep(5*1000);
    usb_ctl_val = UsbRead(ctl_reg);
    3afc:	d0a6cb0b 	ldhu	r2,-25812(gp)
    3b00:	10bfffcc 	andi	r2,r2,65535
    3b04:	1009883a 	mov	r4,r2
    3b08:	0003c340 	call	3c34 <UsbRead>
    3b0c:	e0bff80d 	sth	r2,-32(fp)
    //usleep(5*1000);

    if(!(usb_ctl_val & no_device))
    3b10:	d0a6cb8b 	ldhu	r2,-25810(gp)
    3b14:	e0fff80b 	ldhu	r3,-32(fp)
    3b18:	1884703a 	and	r2,r3,r2
    3b1c:	10bfffcc 	andi	r2,r2,65535
    3b20:	1000061e 	bne	r2,zero,3b3c <main+0x38e0>
    {
       printf("\n[INFO]: the mouse has been removed!!! \n");
    3b24:	01000074 	movhi	r4,1
    3b28:	210c3f04 	addi	r4,r4,12540
    3b2c:	0003e500 	call	3e50 <puts>
       printf("[INFO]: please insert again!!! \n");
    3b30:	01000074 	movhi	r4,1
    3b34:	210c4904 	addi	r4,r4,12580
    3b38:	0003e500 	call	3e50 <puts>
    };
    usleep(5000);
    3b3c:	0104e204 	movi	r4,5000
    3b40:	00108ec0 	call	108ec <usleep>
    usb_ctl_val = UsbRead(ctl_reg);
    3b44:	d0a6cb0b 	ldhu	r2,-25812(gp)
    3b48:	10bfffcc 	andi	r2,r2,65535
    3b4c:	1009883a 	mov	r4,r2
    3b50:	0003c340 	call	3c34 <UsbRead>
    3b54:	e0bff80d 	sth	r2,-32(fp)
    while (!(usb_ctl_val & no_device))
    3b58:	00001d06 	br	3bd0 <main+0x3974>
    {
       
       usb_ctl_val = UsbRead(ctl_reg);
    3b5c:	d0a6cb0b 	ldhu	r2,-25812(gp)
    3b60:	10bfffcc 	andi	r2,r2,65535
    3b64:	1009883a 	mov	r4,r2
    3b68:	0003c340 	call	3c34 <UsbRead>
    3b6c:	e0bff80d 	sth	r2,-32(fp)
       usleep(5*1000);
    3b70:	0104e204 	movi	r4,5000
    3b74:	00108ec0 	call	108ec <usleep>
       usb_ctl_val = UsbRead(ctl_reg);
    3b78:	d0a6cb0b 	ldhu	r2,-25812(gp)
    3b7c:	10bfffcc 	andi	r2,r2,65535
    3b80:	1009883a 	mov	r4,r2
    3b84:	0003c340 	call	3c34 <UsbRead>
    3b88:	e0bff80d 	sth	r2,-32(fp)
       usleep(5*1000);
    3b8c:	0104e204 	movi	r4,5000
    3b90:	00108ec0 	call	108ec <usleep>
       usb_ctl_val = UsbRead(ctl_reg);
    3b94:	d0a6cb0b 	ldhu	r2,-25812(gp)
    3b98:	10bfffcc 	andi	r2,r2,65535
    3b9c:	1009883a 	mov	r4,r2
    3ba0:	0003c340 	call	3c34 <UsbRead>
    3ba4:	e0bff80d 	sth	r2,-32(fp)
       usleep(5*1000);
    3ba8:	0104e204 	movi	r4,5000
    3bac:	00108ec0 	call	108ec <usleep>

       if(usb_ctl_val & no_device)
    3bb0:	d0a6cb8b 	ldhu	r2,-25810(gp)
    3bb4:	e0fff80b 	ldhu	r3,-32(fp)
    3bb8:	1884703a 	and	r2,r3,r2
    3bbc:	10bfffcc 	andi	r2,r2,65535
    3bc0:	10000126 	beq	r2,zero,3bc8 <main+0x396c>
         goto USB_HOT_PLUG;
    3bc4:	0031b806 	br	2a8 <__alt_mem_sram+0xf7e002a8>
       
       usleep(200);
    3bc8:	01003204 	movi	r4,200
    3bcc:	00108ec0 	call	108ec <usleep>
       printf("\n[INFO]: the mouse has been removed!!! \n");
       printf("[INFO]: please insert again!!! \n");
    };
    usleep(5000);
    usb_ctl_val = UsbRead(ctl_reg);
    while (!(usb_ctl_val & no_device))
    3bd0:	d0a6cb8b 	ldhu	r2,-25810(gp)
    3bd4:	e0fff80b 	ldhu	r3,-32(fp)
    3bd8:	1884703a 	and	r2,r3,r2
    3bdc:	10bfffcc 	andi	r2,r2,65535
    3be0:	103fde26 	beq	r2,zero,3b5c <__alt_mem_sram+0xf7e03b5c>
       
       usleep(200);

    }
    
    }//end while
    3be4:	003e7106 	br	35ac <__alt_mem_sram+0xf7e035ac>

00003be8 <UsbWrite>:
*
* @note     None
*
******************************************************************************/
void UsbWrite(alt_u16 Address, alt_u16 Data)
{
    3be8:	defffd04 	addi	sp,sp,-12
    3bec:	df000215 	stw	fp,8(sp)
    3bf0:	df000204 	addi	fp,sp,8
    3bf4:	2007883a 	mov	r3,r4
    3bf8:	2805883a 	mov	r2,r5
    3bfc:	e0fffe0d 	sth	r3,-8(fp)
    3c00:	e0bfff0d 	sth	r2,-4(fp)
    //XIo_Out16(USB_ADDRESS, Address);
    IOWR(CY7C67200_BASE,HPI_ADDR,Address);
    3c04:	e0fffe0b 	ldhu	r3,-8(fp)
    3c08:	00824034 	movhi	r2,2304
    3c0c:	10800a04 	addi	r2,r2,40
    3c10:	10c00035 	stwio	r3,0(r2)
    //usleep(10);
    
    //XIo_Out16(USB_DATA, Data);
    IOWR(CY7C67200_BASE,HPI_DATA,Data); 
    3c14:	e0ffff0b 	ldhu	r3,-4(fp)
    3c18:	00824034 	movhi	r2,2304
    3c1c:	10800804 	addi	r2,r2,32
    3c20:	10c00035 	stwio	r3,0(r2)
}
    3c24:	e037883a 	mov	sp,fp
    3c28:	df000017 	ldw	fp,0(sp)
    3c2c:	dec00104 	addi	sp,sp,4
    3c30:	f800283a 	ret

00003c34 <UsbRead>:
*
* @note     None
*
******************************************************************************/
alt_u16 UsbRead(alt_u16 Address)
{
    3c34:	defffe04 	addi	sp,sp,-8
    3c38:	df000115 	stw	fp,4(sp)
    3c3c:	df000104 	addi	fp,sp,4
    3c40:	2005883a 	mov	r2,r4
    3c44:	e0bfff0d 	sth	r2,-4(fp)
    //XIo_Out16(HPI_ADDR, Address);
    IOWR(CY7C67200_BASE,HPI_ADDR,Address);
    3c48:	e0ffff0b 	ldhu	r3,-4(fp)
    3c4c:	00824034 	movhi	r2,2304
    3c50:	10800a04 	addi	r2,r2,40
    3c54:	10c00035 	stwio	r3,0(r2)
    //usleep(20);
    return IORD(CY7C67200_BASE,HPI_DATA);
    3c58:	00824034 	movhi	r2,2304
    3c5c:	10800804 	addi	r2,r2,32
    3c60:	10800037 	ldwio	r2,0(r2)
}
    3c64:	e037883a 	mov	sp,fp
    3c68:	df000017 	ldw	fp,0(sp)
    3c6c:	dec00104 	addi	sp,sp,4
    3c70:	f800283a 	ret

00003c74 <UsbSoftReset>:
*
* @note     None
*
******************************************************************************/
void UsbSoftReset()
{
    3c74:	defffe04 	addi	sp,sp,-8
    3c78:	dfc00115 	stw	ra,4(sp)
    3c7c:	df000015 	stw	fp,0(sp)
    3c80:	d839883a 	mov	fp,sp
    //XIo_Out16(USB_MAILBOX, COMM_RESET);
    IOWR(CY7C67200_BASE,HPI_MAILBOX,COMM_RESET); //COMM_JUMP2CODE
    3c84:	00fe9414 	movui	r3,64080
    3c88:	00824034 	movhi	r2,2304
    3c8c:	10800904 	addi	r2,r2,36
    3c90:	10c00035 	stwio	r3,0(r2)
    usleep(100000);
    3c94:	010000b4 	movhi	r4,2
    3c98:	2121a804 	addi	r4,r4,-31072
    3c9c:	00108ec0 	call	108ec <usleep>
    printf("[USB INIT]:reset finished!\n");
    3ca0:	01000074 	movhi	r4,1
    3ca4:	210c5104 	addi	r4,r4,12612
    3ca8:	0003e500 	call	3e50 <puts>

    usleep(500000);
    3cac:	01000234 	movhi	r4,8
    3cb0:	21284804 	addi	r4,r4,-24288
    3cb4:	00108ec0 	call	108ec <usleep>
    printf("[USB INIT]:Clear up the interrupt\r\n");
    3cb8:	01000074 	movhi	r4,1
    3cbc:	210c5804 	addi	r4,r4,12640
    3cc0:	0003e500 	call	3e50 <puts>
    IORD(CY7C67200_BASE,HPI_MAILBOX);
    3cc4:	00824034 	movhi	r2,2304
    3cc8:	10800904 	addi	r2,r2,36
    3ccc:	10800037 	ldwio	r2,0(r2)
    IORD(CY7C67200_BASE,HPI_STATUS);
    3cd0:	00824034 	movhi	r2,2304
    3cd4:	10800b04 	addi	r2,r2,44
    3cd8:	10800037 	ldwio	r2,0(r2)

    // Had to add the write due to a bug in BIOS where they overwrite
    // the mailbox after initialization with garbage.  The read clears
    // any pending interrupts.
    UsbRead (HPI_SIE1_MSG_ADR);
    3cdc:	01005104 	movi	r4,324
    3ce0:	0003c340 	call	3c34 <UsbRead>
    UsbWrite (HPI_SIE1_MSG_ADR, 0);
    3ce4:	01005104 	movi	r4,324
    3ce8:	000b883a 	mov	r5,zero
    3cec:	0003be80 	call	3be8 <UsbWrite>
    UsbRead (HPI_SIE2_MSG_ADR);
    3cf0:	01005204 	movi	r4,328
    3cf4:	0003c340 	call	3c34 <UsbRead>
    UsbWrite (HPI_SIE2_MSG_ADR, 0);
    3cf8:	01005204 	movi	r4,328
    3cfc:	000b883a 	mov	r5,zero
    3d00:	0003be80 	call	3be8 <UsbWrite>

    UsbWrite (HOST1_STAT_REG, 0xFFFF);
    3d04:	01302414 	movui	r4,49296
    3d08:	017fffd4 	movui	r5,65535
    3d0c:	0003be80 	call	3be8 <UsbWrite>
    UsbWrite (HOST2_STAT_REG, 0xFFFF);
    3d10:	01302c14 	movui	r4,49328
    3d14:	017fffd4 	movui	r5,65535
    3d18:	0003be80 	call	3be8 <UsbWrite>
}
    3d1c:	e037883a 	mov	sp,fp
    3d20:	dfc00117 	ldw	ra,4(sp)
    3d24:	df000017 	ldw	fp,0(sp)
    3d28:	dec00204 	addi	sp,sp,8
    3d2c:	f800283a 	ret

00003d30 <_printf_r>:
    3d30:	defffd04 	addi	sp,sp,-12
    3d34:	dfc00015 	stw	ra,0(sp)
    3d38:	d9800115 	stw	r6,4(sp)
    3d3c:	d9c00215 	stw	r7,8(sp)
    3d40:	280d883a 	mov	r6,r5
    3d44:	21400217 	ldw	r5,8(r4)
    3d48:	d9c00104 	addi	r7,sp,4
    3d4c:	0003efc0 	call	3efc <___vfprintf_internal_r>
    3d50:	dfc00017 	ldw	ra,0(sp)
    3d54:	dec00304 	addi	sp,sp,12
    3d58:	f800283a 	ret

00003d5c <printf>:
    3d5c:	defffc04 	addi	sp,sp,-16
    3d60:	dfc00015 	stw	ra,0(sp)
    3d64:	d9400115 	stw	r5,4(sp)
    3d68:	d9800215 	stw	r6,8(sp)
    3d6c:	d9c00315 	stw	r7,12(sp)
    3d70:	00800074 	movhi	r2,1
    3d74:	1093cb04 	addi	r2,r2,20268
    3d78:	10800017 	ldw	r2,0(r2)
    3d7c:	200b883a 	mov	r5,r4
    3d80:	d9800104 	addi	r6,sp,4
    3d84:	11000217 	ldw	r4,8(r2)
    3d88:	0005ef80 	call	5ef8 <__vfprintf_internal>
    3d8c:	dfc00017 	ldw	ra,0(sp)
    3d90:	dec00404 	addi	sp,sp,16
    3d94:	f800283a 	ret

00003d98 <_puts_r>:
    3d98:	defff604 	addi	sp,sp,-40
    3d9c:	dc000715 	stw	r16,28(sp)
    3da0:	2021883a 	mov	r16,r4
    3da4:	2809883a 	mov	r4,r5
    3da8:	dc400815 	stw	r17,32(sp)
    3dac:	dfc00915 	stw	ra,36(sp)
    3db0:	2823883a 	mov	r17,r5
    3db4:	0003e640 	call	3e64 <strlen>
    3db8:	00c00074 	movhi	r3,1
    3dbc:	18d3cb04 	addi	r3,r3,20268
    3dc0:	18c00017 	ldw	r3,0(r3)
    3dc4:	11000044 	addi	r4,r2,1
    3dc8:	d8800115 	stw	r2,4(sp)
    3dcc:	18c00217 	ldw	r3,8(r3)
    3dd0:	01400074 	movhi	r5,1
    3dd4:	294c6104 	addi	r5,r5,12676
    3dd8:	1880030b 	ldhu	r2,12(r3)
    3ddc:	d9400215 	stw	r5,8(sp)
    3de0:	d9000615 	stw	r4,24(sp)
    3de4:	01400044 	movi	r5,1
    3de8:	01000084 	movi	r4,2
    3dec:	d9000515 	stw	r4,20(sp)
    3df0:	dc400015 	stw	r17,0(sp)
    3df4:	d9400315 	stw	r5,12(sp)
    3df8:	dec00415 	stw	sp,16(sp)
    3dfc:	1108000c 	andi	r4,r2,8192
    3e00:	2000061e 	bne	r4,zero,3e1c <_puts_r+0x84>
    3e04:	19401917 	ldw	r5,100(r3)
    3e08:	0137ffc4 	movi	r4,-8193
    3e0c:	10880014 	ori	r2,r2,8192
    3e10:	2908703a 	and	r4,r5,r4
    3e14:	1880030d 	sth	r2,12(r3)
    3e18:	19001915 	stw	r4,100(r3)
    3e1c:	81400217 	ldw	r5,8(r16)
    3e20:	8009883a 	mov	r4,r16
    3e24:	d9800404 	addi	r6,sp,16
    3e28:	00083800 	call	8380 <__sfvwrite_r>
    3e2c:	1000061e 	bne	r2,zero,3e48 <_puts_r+0xb0>
    3e30:	00800284 	movi	r2,10
    3e34:	dfc00917 	ldw	ra,36(sp)
    3e38:	dc400817 	ldw	r17,32(sp)
    3e3c:	dc000717 	ldw	r16,28(sp)
    3e40:	dec00a04 	addi	sp,sp,40
    3e44:	f800283a 	ret
    3e48:	00bfffc4 	movi	r2,-1
    3e4c:	003ff906 	br	3e34 <__alt_mem_sram+0xf7e03e34>

00003e50 <puts>:
    3e50:	00800074 	movhi	r2,1
    3e54:	1093cb04 	addi	r2,r2,20268
    3e58:	200b883a 	mov	r5,r4
    3e5c:	11000017 	ldw	r4,0(r2)
    3e60:	0003d981 	jmpi	3d98 <_puts_r>

00003e64 <strlen>:
    3e64:	208000cc 	andi	r2,r4,3
    3e68:	10002026 	beq	r2,zero,3eec <strlen+0x88>
    3e6c:	20800007 	ldb	r2,0(r4)
    3e70:	10002026 	beq	r2,zero,3ef4 <strlen+0x90>
    3e74:	2005883a 	mov	r2,r4
    3e78:	00000206 	br	3e84 <strlen+0x20>
    3e7c:	10c00007 	ldb	r3,0(r2)
    3e80:	18001826 	beq	r3,zero,3ee4 <strlen+0x80>
    3e84:	10800044 	addi	r2,r2,1
    3e88:	10c000cc 	andi	r3,r2,3
    3e8c:	183ffb1e 	bne	r3,zero,3e7c <__alt_mem_sram+0xf7e03e7c>
    3e90:	10c00017 	ldw	r3,0(r2)
    3e94:	01ffbff4 	movhi	r7,65279
    3e98:	39ffbfc4 	addi	r7,r7,-257
    3e9c:	00ca303a 	nor	r5,zero,r3
    3ea0:	01a02074 	movhi	r6,32897
    3ea4:	19c7883a 	add	r3,r3,r7
    3ea8:	31a02004 	addi	r6,r6,-32640
    3eac:	1946703a 	and	r3,r3,r5
    3eb0:	1986703a 	and	r3,r3,r6
    3eb4:	1800091e 	bne	r3,zero,3edc <strlen+0x78>
    3eb8:	10800104 	addi	r2,r2,4
    3ebc:	10c00017 	ldw	r3,0(r2)
    3ec0:	19cb883a 	add	r5,r3,r7
    3ec4:	00c6303a 	nor	r3,zero,r3
    3ec8:	28c6703a 	and	r3,r5,r3
    3ecc:	1986703a 	and	r3,r3,r6
    3ed0:	183ff926 	beq	r3,zero,3eb8 <__alt_mem_sram+0xf7e03eb8>
    3ed4:	00000106 	br	3edc <strlen+0x78>
    3ed8:	10800044 	addi	r2,r2,1
    3edc:	10c00007 	ldb	r3,0(r2)
    3ee0:	183ffd1e 	bne	r3,zero,3ed8 <__alt_mem_sram+0xf7e03ed8>
    3ee4:	1105c83a 	sub	r2,r2,r4
    3ee8:	f800283a 	ret
    3eec:	2005883a 	mov	r2,r4
    3ef0:	003fe706 	br	3e90 <__alt_mem_sram+0xf7e03e90>
    3ef4:	0005883a 	mov	r2,zero
    3ef8:	f800283a 	ret

00003efc <___vfprintf_internal_r>:
    3efc:	defeb604 	addi	sp,sp,-1320
    3f00:	dfc14915 	stw	ra,1316(sp)
    3f04:	ddc14715 	stw	r23,1308(sp)
    3f08:	dd814615 	stw	r22,1304(sp)
    3f0c:	282f883a 	mov	r23,r5
    3f10:	202d883a 	mov	r22,r4
    3f14:	d9812a15 	stw	r6,1192(sp)
    3f18:	d9c12d15 	stw	r7,1204(sp)
    3f1c:	df014815 	stw	fp,1312(sp)
    3f20:	dd414515 	stw	r21,1300(sp)
    3f24:	dd014415 	stw	r20,1296(sp)
    3f28:	dcc14315 	stw	r19,1292(sp)
    3f2c:	dc814215 	stw	r18,1288(sp)
    3f30:	dc414115 	stw	r17,1284(sp)
    3f34:	dc014015 	stw	r16,1280(sp)
    3f38:	0008a400 	call	8a40 <_localeconv_r>
    3f3c:	10800017 	ldw	r2,0(r2)
    3f40:	1009883a 	mov	r4,r2
    3f44:	d8813515 	stw	r2,1236(sp)
    3f48:	0003e640 	call	3e64 <strlen>
    3f4c:	d8813815 	stw	r2,1248(sp)
    3f50:	b0000226 	beq	r22,zero,3f5c <___vfprintf_internal_r+0x60>
    3f54:	b0800e17 	ldw	r2,56(r22)
    3f58:	10010426 	beq	r2,zero,436c <___vfprintf_internal_r+0x470>
    3f5c:	b8c0030b 	ldhu	r3,12(r23)
    3f60:	1908000c 	andi	r4,r3,8192
    3f64:	1805883a 	mov	r2,r3
    3f68:	2000071e 	bne	r4,zero,3f88 <___vfprintf_internal_r+0x8c>
    3f6c:	b9001917 	ldw	r4,100(r23)
    3f70:	18880014 	ori	r2,r3,8192
    3f74:	00f7ffc4 	movi	r3,-8193
    3f78:	20c8703a 	and	r4,r4,r3
    3f7c:	b880030d 	sth	r2,12(r23)
    3f80:	1007883a 	mov	r3,r2
    3f84:	b9001915 	stw	r4,100(r23)
    3f88:	1100020c 	andi	r4,r2,8
    3f8c:	2000a726 	beq	r4,zero,422c <___vfprintf_internal_r+0x330>
    3f90:	b9000417 	ldw	r4,16(r23)
    3f94:	2000a526 	beq	r4,zero,422c <___vfprintf_internal_r+0x330>
    3f98:	1080068c 	andi	r2,r2,26
    3f9c:	01000284 	movi	r4,10
    3fa0:	1100ab26 	beq	r2,r4,4250 <___vfprintf_internal_r+0x354>
    3fa4:	dac10e04 	addi	r11,sp,1080
    3fa8:	db010dc4 	addi	r12,sp,1079
    3fac:	d8800404 	addi	r2,sp,16
    3fb0:	05000074 	movhi	r20,1
    3fb4:	dac12815 	stw	r11,1184(sp)
    3fb8:	5b17c83a 	sub	r11,r11,r12
    3fbc:	a50c7284 	addi	r20,r20,12746
    3fc0:	db012915 	stw	r12,1188(sp)
    3fc4:	d8811e15 	stw	r2,1144(sp)
    3fc8:	d8012015 	stw	zero,1152(sp)
    3fcc:	d8011f15 	stw	zero,1148(sp)
    3fd0:	d8013315 	stw	zero,1228(sp)
    3fd4:	d8013715 	stw	zero,1244(sp)
    3fd8:	d8013915 	stw	zero,1252(sp)
    3fdc:	d8013b15 	stw	zero,1260(sp)
    3fe0:	d8013a15 	stw	zero,1256(sp)
    3fe4:	d8012f15 	stw	zero,1212(sp)
    3fe8:	1011883a 	mov	r8,r2
    3fec:	dac13c15 	stw	r11,1264(sp)
    3ff0:	db012a17 	ldw	r12,1192(sp)
    3ff4:	60800007 	ldb	r2,0(r12)
    3ff8:	1000df26 	beq	r2,zero,4378 <___vfprintf_internal_r+0x47c>
    3ffc:	00c00944 	movi	r3,37
    4000:	10c0dd26 	beq	r2,r3,4378 <___vfprintf_internal_r+0x47c>
    4004:	6021883a 	mov	r16,r12
    4008:	00000106 	br	4010 <___vfprintf_internal_r+0x114>
    400c:	10c08426 	beq	r2,r3,4220 <___vfprintf_internal_r+0x324>
    4010:	84000044 	addi	r16,r16,1
    4014:	80800007 	ldb	r2,0(r16)
    4018:	103ffc1e 	bne	r2,zero,400c <__alt_mem_sram+0xf7e0400c>
    401c:	dac12a17 	ldw	r11,1192(sp)
    4020:	82e3c83a 	sub	r17,r16,r11
    4024:	88000f26 	beq	r17,zero,4064 <___vfprintf_internal_r+0x168>
    4028:	d8c12017 	ldw	r3,1152(sp)
    402c:	d8811f17 	ldw	r2,1148(sp)
    4030:	dac12a17 	ldw	r11,1192(sp)
    4034:	1c47883a 	add	r3,r3,r17
    4038:	10800044 	addi	r2,r2,1
    403c:	d8c12015 	stw	r3,1152(sp)
    4040:	42c00015 	stw	r11,0(r8)
    4044:	44400115 	stw	r17,4(r8)
    4048:	d8811f15 	stw	r2,1148(sp)
    404c:	00c001c4 	movi	r3,7
    4050:	1880b416 	blt	r3,r2,4324 <___vfprintf_internal_r+0x428>
    4054:	42000204 	addi	r8,r8,8
    4058:	db012f17 	ldw	r12,1212(sp)
    405c:	6459883a 	add	r12,r12,r17
    4060:	db012f15 	stw	r12,1212(sp)
    4064:	80800007 	ldb	r2,0(r16)
    4068:	1000b526 	beq	r2,zero,4340 <___vfprintf_internal_r+0x444>
    406c:	80800044 	addi	r2,r16,1
    4070:	84000047 	ldb	r16,1(r16)
    4074:	d8012785 	stb	zero,1182(sp)
    4078:	000d883a 	mov	r6,zero
    407c:	027fffc4 	movi	r9,-1
    4080:	d8012e15 	stw	zero,1208(sp)
    4084:	0023883a 	mov	r17,zero
    4088:	01001604 	movi	r4,88
    408c:	01400244 	movi	r5,9
    4090:	02800a84 	movi	r10,42
    4094:	01c01b04 	movi	r7,108
    4098:	10c00044 	addi	r3,r2,1
    409c:	80bff804 	addi	r2,r16,-32
    40a0:	2082f236 	bltu	r4,r2,4c6c <___vfprintf_internal_r+0xd70>
    40a4:	100490ba 	slli	r2,r2,2
    40a8:	02c00034 	movhi	r11,0
    40ac:	5ad02f04 	addi	r11,r11,16572
    40b0:	12c5883a 	add	r2,r2,r11
    40b4:	10800017 	ldw	r2,0(r2)
    40b8:	1000683a 	jmp	r2
    40bc:	00004ab4 	movhi	zero,298
    40c0:	00004c6c 	andhi	zero,zero,305
    40c4:	00004c6c 	andhi	zero,zero,305
    40c8:	00004ad4 	movui	zero,299
    40cc:	00004c6c 	andhi	zero,zero,305
    40d0:	00004c6c 	andhi	zero,zero,305
    40d4:	00004c6c 	andhi	zero,zero,305
    40d8:	00004c6c 	andhi	zero,zero,305
    40dc:	00004c6c 	andhi	zero,zero,305
    40e0:	00004c6c 	andhi	zero,zero,305
    40e4:	00004c30 	cmpltui	zero,zero,304
    40e8:	00004c5c 	xori	zero,zero,305
    40ec:	00004c6c 	andhi	zero,zero,305
    40f0:	00004380 	call	438 <main+0x1dc>
    40f4:	00004390 	cmplti	zero,zero,270
    40f8:	00004c6c 	andhi	zero,zero,305
    40fc:	000043d0 	cmplti	zero,zero,271
    4100:	000048c4 	movi	zero,291
    4104:	000048c4 	movi	zero,291
    4108:	000048c4 	movi	zero,291
    410c:	000048c4 	movi	zero,291
    4110:	000048c4 	movi	zero,291
    4114:	000048c4 	movi	zero,291
    4118:	000048c4 	movi	zero,291
    411c:	000048c4 	movi	zero,291
    4120:	000048c4 	movi	zero,291
    4124:	00004c6c 	andhi	zero,zero,305
    4128:	00004c6c 	andhi	zero,zero,305
    412c:	00004c6c 	andhi	zero,zero,305
    4130:	00004c6c 	andhi	zero,zero,305
    4134:	00004c6c 	andhi	zero,zero,305
    4138:	00004c6c 	andhi	zero,zero,305
    413c:	00004c6c 	andhi	zero,zero,305
    4140:	00004c6c 	andhi	zero,zero,305
    4144:	00004c6c 	andhi	zero,zero,305
    4148:	00004c6c 	andhi	zero,zero,305
    414c:	000048f8 	rdprs	zero,zero,291
    4150:	000043e0 	cmpeqi	zero,zero,271
    4154:	00004c6c 	andhi	zero,zero,305
    4158:	000043e0 	cmpeqi	zero,zero,271
    415c:	00004c6c 	andhi	zero,zero,305
    4160:	00004c6c 	andhi	zero,zero,305
    4164:	00004c6c 	andhi	zero,zero,305
    4168:	00004c6c 	andhi	zero,zero,305
    416c:	00004484 	movi	zero,274
    4170:	00004c6c 	andhi	zero,zero,305
    4174:	00004c6c 	andhi	zero,zero,305
    4178:	00004494 	movui	zero,274
    417c:	00004c6c 	andhi	zero,zero,305
    4180:	00004c6c 	andhi	zero,zero,305
    4184:	00004c6c 	andhi	zero,zero,305
    4188:	00004c6c 	andhi	zero,zero,305
    418c:	00004c6c 	andhi	zero,zero,305
    4190:	00004890 	cmplti	zero,zero,290
    4194:	00004c6c 	andhi	zero,zero,305
    4198:	00004c6c 	andhi	zero,zero,305
    419c:	00004940 	call	494 <main+0x238>
    41a0:	00004c6c 	andhi	zero,zero,305
    41a4:	00004c6c 	andhi	zero,zero,305
    41a8:	00004c6c 	andhi	zero,zero,305
    41ac:	00004c6c 	andhi	zero,zero,305
    41b0:	00004c6c 	andhi	zero,zero,305
    41b4:	00004c6c 	andhi	zero,zero,305
    41b8:	00004c6c 	andhi	zero,zero,305
    41bc:	00004c6c 	andhi	zero,zero,305
    41c0:	00004c6c 	andhi	zero,zero,305
    41c4:	00004c6c 	andhi	zero,zero,305
    41c8:	00004b34 	movhi	zero,300
    41cc:	00004ae4 	muli	zero,zero,299
    41d0:	000043e0 	cmpeqi	zero,zero,271
    41d4:	000043e0 	cmpeqi	zero,zero,271
    41d8:	000043e0 	cmpeqi	zero,zero,271
    41dc:	00004b24 	muli	zero,zero,300
    41e0:	00004ae4 	muli	zero,zero,299
    41e4:	00004c6c 	andhi	zero,zero,305
    41e8:	00004c6c 	andhi	zero,zero,305
    41ec:	00004a2c 	andhi	zero,zero,296
    41f0:	00004c6c 	andhi	zero,zero,305
    41f4:	00004a40 	call	4a4 <main+0x248>
    41f8:	00004a74 	movhi	zero,297
    41fc:	00004b74 	movhi	zero,301
    4200:	0000499c 	xori	zero,zero,294
    4204:	00004c6c 	andhi	zero,zero,305
    4208:	00004bbc 	xorhi	zero,zero,302
    420c:	00004c6c 	andhi	zero,zero,305
    4210:	000049ac 	andhi	zero,zero,294
    4214:	00004c6c 	andhi	zero,zero,305
    4218:	00004c6c 	andhi	zero,zero,305
    421c:	000049ec 	andhi	zero,zero,295
    4220:	db012a17 	ldw	r12,1192(sp)
    4224:	8323c83a 	sub	r17,r16,r12
    4228:	003f7e06 	br	4024 <__alt_mem_sram+0xf7e04024>
    422c:	b009883a 	mov	r4,r22
    4230:	b80b883a 	mov	r5,r23
    4234:	0005f1c0 	call	5f1c <__swsetup_r>
    4238:	10002d1e 	bne	r2,zero,42f0 <___vfprintf_internal_r+0x3f4>
    423c:	b8c0030b 	ldhu	r3,12(r23)
    4240:	01000284 	movi	r4,10
    4244:	1805883a 	mov	r2,r3
    4248:	1080068c 	andi	r2,r2,26
    424c:	113f551e 	bne	r2,r4,3fa4 <__alt_mem_sram+0xf7e03fa4>
    4250:	b880038b 	ldhu	r2,14(r23)
    4254:	113fffcc 	andi	r4,r2,65535
    4258:	2120001c 	xori	r4,r4,32768
    425c:	21200004 	addi	r4,r4,-32768
    4260:	203f5016 	blt	r4,zero,3fa4 <__alt_mem_sram+0xf7e03fa4>
    4264:	bac01917 	ldw	r11,100(r23)
    4268:	ba800717 	ldw	r10,28(r23)
    426c:	ba400917 	ldw	r9,36(r23)
    4270:	d9812a17 	ldw	r6,1192(sp)
    4274:	d9c12d17 	ldw	r7,1204(sp)
    4278:	02010004 	movi	r8,1024
    427c:	18ffff4c 	andi	r3,r3,65533
    4280:	d881078d 	sth	r2,1054(sp)
    4284:	b009883a 	mov	r4,r22
    4288:	d8800404 	addi	r2,sp,16
    428c:	d9410404 	addi	r5,sp,1040
    4290:	d8c1070d 	sth	r3,1052(sp)
    4294:	dac11d15 	stw	r11,1140(sp)
    4298:	da810b15 	stw	r10,1068(sp)
    429c:	da410d15 	stw	r9,1076(sp)
    42a0:	d8810415 	stw	r2,1040(sp)
    42a4:	d8810815 	stw	r2,1056(sp)
    42a8:	da010615 	stw	r8,1048(sp)
    42ac:	da010915 	stw	r8,1060(sp)
    42b0:	d8010a15 	stw	zero,1064(sp)
    42b4:	0003efc0 	call	3efc <___vfprintf_internal_r>
    42b8:	1021883a 	mov	r16,r2
    42bc:	10000416 	blt	r2,zero,42d0 <___vfprintf_internal_r+0x3d4>
    42c0:	b009883a 	mov	r4,r22
    42c4:	d9410404 	addi	r5,sp,1040
    42c8:	00079740 	call	7974 <_fflush_r>
    42cc:	1006ee1e 	bne	r2,zero,5e88 <___vfprintf_internal_r+0x1f8c>
    42d0:	d881070b 	ldhu	r2,1052(sp)
    42d4:	1080100c 	andi	r2,r2,64
    42d8:	10000326 	beq	r2,zero,42e8 <___vfprintf_internal_r+0x3ec>
    42dc:	b880030b 	ldhu	r2,12(r23)
    42e0:	10801014 	ori	r2,r2,64
    42e4:	b880030d 	sth	r2,12(r23)
    42e8:	8005883a 	mov	r2,r16
    42ec:	00000106 	br	42f4 <___vfprintf_internal_r+0x3f8>
    42f0:	00bfffc4 	movi	r2,-1
    42f4:	dfc14917 	ldw	ra,1316(sp)
    42f8:	df014817 	ldw	fp,1312(sp)
    42fc:	ddc14717 	ldw	r23,1308(sp)
    4300:	dd814617 	ldw	r22,1304(sp)
    4304:	dd414517 	ldw	r21,1300(sp)
    4308:	dd014417 	ldw	r20,1296(sp)
    430c:	dcc14317 	ldw	r19,1292(sp)
    4310:	dc814217 	ldw	r18,1288(sp)
    4314:	dc414117 	ldw	r17,1284(sp)
    4318:	dc014017 	ldw	r16,1280(sp)
    431c:	dec14a04 	addi	sp,sp,1320
    4320:	f800283a 	ret
    4324:	b009883a 	mov	r4,r22
    4328:	b80b883a 	mov	r5,r23
    432c:	d9811e04 	addi	r6,sp,1144
    4330:	000b1440 	call	b144 <__sprint_r>
    4334:	1000081e 	bne	r2,zero,4358 <___vfprintf_internal_r+0x45c>
    4338:	da000404 	addi	r8,sp,16
    433c:	003f4606 	br	4058 <__alt_mem_sram+0xf7e04058>
    4340:	d8812017 	ldw	r2,1152(sp)
    4344:	10000426 	beq	r2,zero,4358 <___vfprintf_internal_r+0x45c>
    4348:	b009883a 	mov	r4,r22
    434c:	b80b883a 	mov	r5,r23
    4350:	d9811e04 	addi	r6,sp,1144
    4354:	000b1440 	call	b144 <__sprint_r>
    4358:	b880030b 	ldhu	r2,12(r23)
    435c:	1080100c 	andi	r2,r2,64
    4360:	103fe31e 	bne	r2,zero,42f0 <__alt_mem_sram+0xf7e042f0>
    4364:	d8812f17 	ldw	r2,1212(sp)
    4368:	003fe206 	br	42f4 <__alt_mem_sram+0xf7e042f4>
    436c:	b009883a 	mov	r4,r22
    4370:	0007f1c0 	call	7f1c <__sinit>
    4374:	003ef906 	br	3f5c <__alt_mem_sram+0xf7e03f5c>
    4378:	dc012a17 	ldw	r16,1192(sp)
    437c:	003f3906 	br	4064 <__alt_mem_sram+0xf7e04064>
    4380:	1805883a 	mov	r2,r3
    4384:	8c400114 	ori	r17,r17,4
    4388:	1c000007 	ldb	r16,0(r3)
    438c:	003f4206 	br	4098 <__alt_mem_sram+0xf7e04098>
    4390:	1c000007 	ldb	r16,0(r3)
    4394:	18800044 	addi	r2,r3,1
    4398:	8286b326 	beq	r16,r10,5e68 <___vfprintf_internal_r+0x1f6c>
    439c:	82fff404 	addi	r11,r16,-48
    43a0:	1007883a 	mov	r3,r2
    43a4:	0013883a 	mov	r9,zero
    43a8:	2aff3c36 	bltu	r5,r11,409c <__alt_mem_sram+0xf7e0409c>
    43ac:	1c000007 	ldb	r16,0(r3)
    43b0:	4a4002a4 	muli	r9,r9,10
    43b4:	18c00044 	addi	r3,r3,1
    43b8:	5a53883a 	add	r9,r11,r9
    43bc:	82fff404 	addi	r11,r16,-48
    43c0:	2afffa2e 	bgeu	r5,r11,43ac <__alt_mem_sram+0xf7e043ac>
    43c4:	483f350e 	bge	r9,zero,409c <__alt_mem_sram+0xf7e0409c>
    43c8:	027fffc4 	movi	r9,-1
    43cc:	003f3306 	br	409c <__alt_mem_sram+0xf7e0409c>
    43d0:	8c402014 	ori	r17,r17,128
    43d4:	1805883a 	mov	r2,r3
    43d8:	1c000007 	ldb	r16,0(r3)
    43dc:	003f2e06 	br	4098 <__alt_mem_sram+0xf7e04098>
    43e0:	db012d17 	ldw	r12,1204(sp)
    43e4:	dac12d17 	ldw	r11,1204(sp)
    43e8:	d8c12a15 	stw	r3,1192(sp)
    43ec:	63000017 	ldw	r12,0(r12)
    43f0:	5ac00117 	ldw	r11,4(r11)
    43f4:	d9812785 	stb	r6,1182(sp)
    43f8:	6009883a 	mov	r4,r12
    43fc:	580b883a 	mov	r5,r11
    4400:	db013715 	stw	r12,1244(sp)
    4404:	da013f15 	stw	r8,1276(sp)
    4408:	da413e15 	stw	r9,1272(sp)
    440c:	dac13915 	stw	r11,1252(sp)
    4410:	000ada00 	call	ada0 <__fpclassifyd>
    4414:	db012d17 	ldw	r12,1204(sp)
    4418:	04800044 	movi	r18,1
    441c:	da013f17 	ldw	r8,1276(sp)
    4420:	64c00204 	addi	r19,r12,8
    4424:	da413e17 	ldw	r9,1272(sp)
    4428:	d9013717 	ldw	r4,1244(sp)
    442c:	d9413917 	ldw	r5,1252(sp)
    4430:	1484581e 	bne	r2,r18,5594 <___vfprintf_internal_r+0x1698>
    4434:	000d883a 	mov	r6,zero
    4438:	000f883a 	mov	r7,zero
    443c:	000ed5c0 	call	ed5c <__ledf2>
    4440:	da013f17 	ldw	r8,1276(sp)
    4444:	1005ef16 	blt	r2,zero,5c04 <___vfprintf_internal_r+0x1d08>
    4448:	dd412783 	ldbu	r21,1182(sp)
    444c:	008011c4 	movi	r2,71
    4450:	14053b0e 	bge	r2,r16,5940 <___vfprintf_internal_r+0x1a44>
    4454:	00c00074 	movhi	r3,1
